	.file	"thttpd.c"
	.bss
	.align 32
	.type	argv0, @object
	.size	argv0, 4
argv0:
	.zero	64
	.align 32
	.type	debug, @object
	.size	debug, 4
debug:
	.zero	64
	.align 32
	.type	port, @object
	.size	port, 2
port:
	.zero	64
	.align 32
	.type	dir, @object
	.size	dir, 4
dir:
	.zero	64
	.align 32
	.type	data_dir, @object
	.size	data_dir, 4
data_dir:
	.zero	64
	.align 32
	.type	do_chroot, @object
	.size	do_chroot, 4
do_chroot:
	.zero	64
	.align 32
	.type	no_log, @object
	.size	no_log, 4
no_log:
	.zero	64
	.align 32
	.type	no_symlink_check, @object
	.size	no_symlink_check, 4
no_symlink_check:
	.zero	64
	.align 32
	.type	do_vhost, @object
	.size	do_vhost, 4
do_vhost:
	.zero	64
	.align 32
	.type	do_global_passwd, @object
	.size	do_global_passwd, 4
do_global_passwd:
	.zero	64
	.align 32
	.type	cgi_pattern, @object
	.size	cgi_pattern, 4
cgi_pattern:
	.zero	64
	.align 32
	.type	cgi_limit, @object
	.size	cgi_limit, 4
cgi_limit:
	.zero	64
	.align 32
	.type	url_pattern, @object
	.size	url_pattern, 4
url_pattern:
	.zero	64
	.align 32
	.type	no_empty_referers, @object
	.size	no_empty_referers, 4
no_empty_referers:
	.zero	64
	.align 32
	.type	local_pattern, @object
	.size	local_pattern, 4
local_pattern:
	.zero	64
	.align 32
	.type	logfile, @object
	.size	logfile, 4
logfile:
	.zero	64
	.align 32
	.type	throttlefile, @object
	.size	throttlefile, 4
throttlefile:
	.zero	64
	.align 32
	.type	hostname, @object
	.size	hostname, 4
hostname:
	.zero	64
	.align 32
	.type	pidfile, @object
	.size	pidfile, 4
pidfile:
	.zero	64
	.align 32
	.type	user, @object
	.size	user, 4
user:
	.zero	64
	.align 32
	.type	charset, @object
	.size	charset, 4
charset:
	.zero	64
	.align 32
	.type	p3p, @object
	.size	p3p, 4
p3p:
	.zero	64
	.align 32
	.type	max_age, @object
	.size	max_age, 4
max_age:
	.zero	64
	.align 32
	.type	throttles, @object
	.size	throttles, 4
throttles:
	.zero	64
	.align 32
	.type	numthrottles, @object
	.size	numthrottles, 4
numthrottles:
	.zero	64
	.align 32
	.type	maxthrottles, @object
	.size	maxthrottles, 4
maxthrottles:
	.zero	64
	.align 32
	.type	connects, @object
	.size	connects, 4
connects:
	.zero	64
	.align 32
	.type	num_connects, @object
	.size	num_connects, 4
num_connects:
	.zero	64
	.align 32
	.type	max_connects, @object
	.size	max_connects, 4
max_connects:
	.zero	64
	.align 32
	.type	first_free_connect, @object
	.size	first_free_connect, 4
first_free_connect:
	.zero	64
	.align 32
	.type	httpd_conn_count, @object
	.size	httpd_conn_count, 4
httpd_conn_count:
	.zero	64
	.align 32
	.type	hs, @object
	.size	hs, 4
hs:
	.zero	64
	.globl	terminate
	.align 32
	.type	terminate, @object
	.size	terminate, 4
terminate:
	.zero	64
	.comm	start_time,4,4
	.comm	stats_time,4,4
	.comm	stats_connections,4,4
	.comm	stats_bytes,4,4
	.comm	stats_simultaneous,4,4
	.align 32
	.type	got_hup, @object
	.size	got_hup, 4
got_hup:
	.zero	64
	.align 32
	.type	got_usr1, @object
	.size	got_usr1, 4
got_usr1:
	.zero	64
	.align 32
	.type	watchdog_flag, @object
	.size	watchdog_flag, 4
watchdog_flag:
	.zero	64
	.section	.rodata
	.align 32
.LC0:
	.string	"exiting due to signal %d"
	.zero	39
	.text
	.type	handle_term, @function
handle_term:
.LASANPC0:
.LFB0:
	.cfi_startproc
	pushl	%ebp
	.cfi_def_cfa_offset 8
	.cfi_offset 5, -8
	movl	%esp, %ebp
	.cfi_def_cfa_register 5
	subl	$8, %esp
	call	shut_down
	subl	$4, %esp
	pushl	8(%ebp)
	pushl	$.LC0
	pushl	$5
	call	syslog
	addl	$16, %esp
	call	closelog
	call	__asan_handle_no_return
	subl	$12, %esp
	pushl	$1
	call	exit
	.cfi_endproc
.LFE0:
	.size	handle_term, .-handle_term
	.globl	__asan_stack_malloc_1
	.section	.rodata
.LC1:
	.string	"1 32 4 6 status "
	.align 32
.LC2:
	.string	"child wait - %m"
	.zero	48
	.text
	.type	handle_chld, @function
handle_chld:
.LASANPC1:
.LFB1:
	.cfi_startproc
	pushl	%ebp
	.cfi_def_cfa_offset 8
	.cfi_offset 5, -8
	movl	%esp, %ebp
	.cfi_def_cfa_register 5
	pushl	%edi
	pushl	%esi
	pushl	%ebx
	subl	$140, %esp
	.cfi_offset 7, -12
	.cfi_offset 6, -16
	.cfi_offset 3, -20
	leal	-120(%ebp), %eax
	movl	%eax, -140(%ebp)
	movl	%eax, -148(%ebp)
	cmpl	$0, __asan_option_detect_stack_use_after_return
	je	.L2
	subl	$8, %esp
	pushl	-140(%ebp)
	pushl	$96
	call	__asan_stack_malloc_1
	addl	$16, %esp
	movl	%eax, -140(%ebp)
.L2:
	movl	-140(%ebp), %edi
	movl	%edi, %eax
	addl	$96, %eax
	movl	%eax, -144(%ebp)
	movl	%edi, %eax
	movl	$1102416563, (%eax)
	movl	%edi, %eax
	movl	$.LC1, 4(%eax)
	movl	$.LASANPC1, 8(%eax)
	shrl	$3, %eax
	movl	%eax, %edi
	movl	$-235802127, 536870912(%edi)
	movl	$-185273340, 536870916(%edi)
	movl	$-202116109, 536870920(%edi)
	call	__errno_location
	movl	%eax, %esi
	movl	%esi, %ecx
	movl	%ecx, %eax
	shrl	$3, %eax
	addl	$536870912, %eax
	movzbl	(%eax), %edx
	testb	%dl, %dl
	setne	%bl
	movl	%ecx, %eax
	andl	$7, %eax
	addl	$3, %eax
	cmpb	%dl, %al
	setge	%al
	andl	%ebx, %eax
	testb	%al, %al
	je	.L6
	subl	$12, %esp
	pushl	%ecx
	call	__asan_report_load4
.L6:
	movl	(%esi), %eax
	movl	%eax, -128(%ebp)
.L20:
	subl	$4, %esp
	pushl	$1
	movl	-144(%ebp), %eax
	subl	$64, %eax
	pushl	%eax
	pushl	$-1
	call	waitpid
	addl	$16, %esp
	movl	%eax, -124(%ebp)
	cmpl	$0, -124(%ebp)
	jne	.L7
	jmp	.L8
.L7:
	cmpl	$0, -124(%ebp)
	jns	.L9
	call	__errno_location
	movl	%eax, %esi
	movl	%esi, %ecx
	movl	%ecx, %eax
	shrl	$3, %eax
	addl	$536870912, %eax
	movzbl	(%eax), %edx
	testb	%dl, %dl
	setne	%bl
	movl	%ecx, %eax
	andl	$7, %eax
	addl	$3, %eax
	cmpb	%dl, %al
	setge	%al
	andl	%ebx, %eax
	testb	%al, %al
	je	.L10
	subl	$12, %esp
	pushl	%ecx
	call	__asan_report_load4
.L10:
	movl	(%esi), %eax
	cmpl	$4, %eax
	je	.L11
	call	__errno_location
	movl	%eax, %esi
	movl	%esi, %ecx
	movl	%ecx, %eax
	shrl	$3, %eax
	addl	$536870912, %eax
	movzbl	(%eax), %edx
	testb	%dl, %dl
	setne	%bl
	movl	%ecx, %eax
	andl	$7, %eax
	addl	$3, %eax
	cmpb	%dl, %al
	setge	%al
	andl	%ebx, %eax
	testb	%al, %al
	je	.L12
	subl	$12, %esp
	pushl	%ecx
	call	__asan_report_load4
.L12:
	movl	(%esi), %eax
	cmpl	$11, %eax
	jne	.L13
.L11:
	jmp	.L14
.L13:
	call	__errno_location
	movl	%eax, %ebx
	movl	%ebx, %edx
	movl	%edx, %eax
	shrl	$3, %eax
	addl	$536870912, %eax
	movzbl	(%eax), %ecx
	testb	%cl, %cl
	setne	%al
	movl	%eax, %esi
	movl	%edx, %eax
	andl	$7, %eax
	addl	$3, %eax
	cmpb	%cl, %al
	setge	%al
	andl	%esi, %eax
	testb	%al, %al
	je	.L15
	subl	$12, %esp
	pushl	%edx
	call	__asan_report_load4
.L15:
	movl	(%ebx), %eax
	cmpl	$10, %eax
	je	.L16
	subl	$8, %esp
	pushl	$.LC2
	pushl	$3
	call	syslog
	addl	$16, %esp
	jmp	.L8
.L16:
	jmp	.L8
.L9:
	movl	hs, %eax
	testl	%eax, %eax
	je	.L14
	movl	hs, %edx
	leal	20(%edx), %eax
	movl	%eax, %ebx
	movl	%ebx, %eax
	shrl	$3, %eax
	addl	$536870912, %eax
	movzbl	(%eax), %ecx
	testb	%cl, %cl
	setne	%al
	movl	%eax, %esi
	movl	%ebx, %eax
	andl	$7, %eax
	addl	$3, %eax
	cmpb	%cl, %al
	setge	%al
	andl	%esi, %eax
	testb	%al, %al
	je	.L17
	subl	$12, %esp
	pushl	%ebx
	call	__asan_report_load4
.L17:
	movl	20(%edx), %eax
	subl	$1, %eax
	movl	%eax, 20(%edx)
	movl	hs, %ebx
	leal	20(%ebx), %eax
	movl	%eax, %ecx
	movl	%ecx, %eax
	shrl	$3, %eax
	addl	$536870912, %eax
	movzbl	(%eax), %edx
	testb	%dl, %dl
	setne	%al
	movl	%eax, %esi
	movl	%ecx, %eax
	andl	$7, %eax
	addl	$3, %eax
	cmpb	%dl, %al
	setge	%al
	andl	%esi, %eax
	testb	%al, %al
	je	.L18
	subl	$12, %esp
	pushl	%ecx
	call	__asan_report_load4
.L18:
	movl	20(%ebx), %eax
	testl	%eax, %eax
	jns	.L14
	movl	hs, %ebx
	leal	20(%ebx), %eax
	movl	%eax, %ecx
	movl	%ecx, %eax
	shrl	$3, %eax
	addl	$536870912, %eax
	movzbl	(%eax), %edx
	testb	%dl, %dl
	setne	%al
	movl	%eax, %esi
	movl	%ecx, %eax
	andl	$7, %eax
	addl	$3, %eax
	cmpb	%dl, %al
	setge	%al
	andl	%esi, %eax
	testb	%al, %al
	je	.L19
	subl	$12, %esp
	pushl	%ecx
	call	__asan_report_store4
.L19:
	movl	$0, 20(%ebx)
.L14:
	jmp	.L20
.L8:
	call	__errno_location
	movl	%eax, %ebx
	movl	%ebx, %edx
	movl	%edx, %eax
	shrl	$3, %eax
	addl	$536870912, %eax
	movzbl	(%eax), %ecx
	testb	%cl, %cl
	setne	%al
	movl	%eax, %esi
	movl	%edx, %eax
	andl	$7, %eax
	addl	$3, %eax
	cmpb	%cl, %al
	setge	%al
	andl	%esi, %eax
	testb	%al, %al
	je	.L21
	subl	$12, %esp
	pushl	%edx
	call	__asan_report_store4
.L21:
	movl	-128(%ebp), %eax
	movl	%eax, (%ebx)
	movl	-140(%ebp), %esi
	cmpl	%esi, -148(%ebp)
	je	.L3
	movl	-140(%ebp), %eax
	movl	$1172321806, (%eax)
	movl	$-168430091, 536870912(%edi)
	movl	$-168430091, 536870916(%edi)
	movl	$-168430091, 536870920(%edi)
	jmp	.L4
.L3:
	movl	$0, 536870912(%edi)
	movl	$0, 536870916(%edi)
	movl	$0, 536870920(%edi)
.L4:
	leal	-12(%ebp), %esp
	popl	%ebx
	.cfi_restore 3
	popl	%esi
	.cfi_restore 6
	popl	%edi
	.cfi_restore 7
	popl	%ebp
	.cfi_restore 5
	.cfi_def_cfa 4, 4
	ret
	.cfi_endproc
.LFE1:
	.size	handle_chld, .-handle_chld
	.type	handle_hup, @function
handle_hup:
.LASANPC2:
.LFB2:
	.cfi_startproc
	pushl	%ebp
	.cfi_def_cfa_offset 8
	.cfi_offset 5, -8
	movl	%esp, %ebp
	.cfi_def_cfa_register 5
	pushl	%edi
	pushl	%esi
	pushl	%ebx
	subl	$28, %esp
	.cfi_offset 7, -12
	.cfi_offset 6, -16
	.cfi_offset 3, -20
	call	__errno_location
	movl	%eax, %ecx
	movl	%ecx, %eax
	movl	%eax, %edx
	shrl	$3, %edx
	addl	$536870912, %edx
	movzbl	(%edx), %edx
	testb	%dl, %dl
	setne	%bl
	movl	%ebx, %edi
	movl	%eax, %esi
	andl	$7, %esi
	addl	$3, %esi
	movl	%esi, %ebx
	cmpb	%dl, %bl
	setge	%dl
	andl	%edi, %edx
	testb	%dl, %dl
	je	.L23
	subl	$12, %esp
	pushl	%eax
	call	__asan_report_load4
.L23:
	movl	(%ecx), %eax
	movl	%eax, -28(%ebp)
	movl	$1, got_hup
	call	__errno_location
	movl	%eax, %ecx
	movl	%ecx, %eax
	movl	%eax, %edx
	shrl	$3, %edx
	addl	$536870912, %edx
	movzbl	(%edx), %edx
	testb	%dl, %dl
	setne	%bl
	movl	%ebx, %edi
	movl	%eax, %esi
	andl	$7, %esi
	addl	$3, %esi
	movl	%esi, %ebx
	cmpb	%dl, %bl
	setge	%dl
	andl	%edi, %edx
	testb	%dl, %dl
	je	.L24
	subl	$12, %esp
	pushl	%eax
	call	__asan_report_store4
.L24:
	movl	-28(%ebp), %eax
	movl	%eax, (%ecx)
	leal	-12(%ebp), %esp
	popl	%ebx
	.cfi_restore 3
	popl	%esi
	.cfi_restore 6
	popl	%edi
	.cfi_restore 7
	popl	%ebp
	.cfi_restore 5
	.cfi_def_cfa 4, 4
	ret
	.cfi_endproc
.LFE2:
	.size	handle_hup, .-handle_hup
	.section	.rodata
	.align 32
.LC3:
	.string	"exiting"
	.zero	56
	.text
	.type	handle_usr1, @function
handle_usr1:
.LASANPC3:
.LFB3:
	.cfi_startproc
	pushl	%ebp
	.cfi_def_cfa_offset 8
	.cfi_offset 5, -8
	movl	%esp, %ebp
	.cfi_def_cfa_register 5
	subl	$8, %esp
	movl	num_connects, %eax
	testl	%eax, %eax
	jne	.L26
	call	shut_down
	subl	$8, %esp
	pushl	$.LC3
	pushl	$5
	call	syslog
	addl	$16, %esp
	call	closelog
	call	__asan_handle_no_return
	subl	$12, %esp
	pushl	$0
	call	exit
.L26:
	movl	$1, got_usr1
	leave
	.cfi_restore 5
	.cfi_def_cfa 4, 4
	ret
	.cfi_endproc
.LFE3:
	.size	handle_usr1, .-handle_usr1
	.type	handle_usr2, @function
handle_usr2:
.LASANPC4:
.LFB4:
	.cfi_startproc
	pushl	%ebp
	.cfi_def_cfa_offset 8
	.cfi_offset 5, -8
	movl	%esp, %ebp
	.cfi_def_cfa_register 5
	pushl	%edi
	pushl	%esi
	pushl	%ebx
	subl	$28, %esp
	.cfi_offset 7, -12
	.cfi_offset 6, -16
	.cfi_offset 3, -20
	call	__errno_location
	movl	%eax, %ecx
	movl	%ecx, %eax
	movl	%eax, %edx
	shrl	$3, %edx
	addl	$536870912, %edx
	movzbl	(%edx), %edx
	testb	%dl, %dl
	setne	%bl
	movl	%ebx, %edi
	movl	%eax, %esi
	andl	$7, %esi
	addl	$3, %esi
	movl	%esi, %ebx
	cmpb	%dl, %bl
	setge	%dl
	andl	%edi, %edx
	testb	%dl, %dl
	je	.L28
	subl	$12, %esp
	pushl	%eax
	call	__asan_report_load4
.L28:
	movl	(%ecx), %eax
	movl	%eax, -28(%ebp)
	subl	$12, %esp
	pushl	$0
	call	logstats
	addl	$16, %esp
	call	__errno_location
	movl	%eax, %ecx
	movl	%ecx, %eax
	movl	%eax, %edx
	shrl	$3, %edx
	addl	$536870912, %edx
	movzbl	(%edx), %edx
	testb	%dl, %dl
	setne	%bl
	movl	%ebx, %edi
	movl	%eax, %esi
	andl	$7, %esi
	addl	$3, %esi
	movl	%esi, %ebx
	cmpb	%dl, %bl
	setge	%dl
	andl	%edi, %edx
	testb	%dl, %dl
	je	.L29
	subl	$12, %esp
	pushl	%eax
	call	__asan_report_store4
.L29:
	movl	-28(%ebp), %eax
	movl	%eax, (%ecx)
	leal	-12(%ebp), %esp
	popl	%ebx
	.cfi_restore 3
	popl	%esi
	.cfi_restore 6
	popl	%edi
	.cfi_restore 7
	popl	%ebp
	.cfi_restore 5
	.cfi_def_cfa 4, 4
	ret
	.cfi_endproc
.LFE4:
	.size	handle_usr2, .-handle_usr2
	.section	.rodata
	.align 32
.LC4:
	.string	"/tmp"
	.zero	59
	.text
	.type	handle_alrm, @function
handle_alrm:
.LASANPC5:
.LFB5:
	.cfi_startproc
	pushl	%ebp
	.cfi_def_cfa_offset 8
	.cfi_offset 5, -8
	movl	%esp, %ebp
	.cfi_def_cfa_register 5
	pushl	%edi
	pushl	%esi
	pushl	%ebx
	subl	$28, %esp
	.cfi_offset 7, -12
	.cfi_offset 6, -16
	.cfi_offset 3, -20
	call	__errno_location
	movl	%eax, %ecx
	movl	%ecx, %eax
	movl	%eax, %edx
	shrl	$3, %edx
	addl	$536870912, %edx
	movzbl	(%edx), %edx
	testb	%dl, %dl
	setne	%bl
	movl	%ebx, %edi
	movl	%eax, %esi
	andl	$7, %esi
	addl	$3, %esi
	movl	%esi, %ebx
	cmpb	%dl, %bl
	setge	%dl
	andl	%edi, %edx
	testb	%dl, %dl
	je	.L31
	subl	$12, %esp
	pushl	%eax
	call	__asan_report_load4
.L31:
	movl	(%ecx), %eax
	movl	%eax, -28(%ebp)
	movl	watchdog_flag, %eax
	testl	%eax, %eax
	jne	.L32
	subl	$12, %esp
	pushl	$.LC4
	call	chdir
	addl	$16, %esp
	call	__asan_handle_no_return
	call	abort
.L32:
	movl	$0, watchdog_flag
	subl	$12, %esp
	pushl	$360
	call	alarm
	addl	$16, %esp
	call	__errno_location
	movl	%eax, %ecx
	movl	%ecx, %eax
	movl	%eax, %edx
	shrl	$3, %edx
	addl	$536870912, %edx
	movzbl	(%edx), %edx
	testb	%dl, %dl
	setne	%bl
	movl	%ebx, %edi
	movl	%eax, %esi
	andl	$7, %esi
	addl	$3, %esi
	movl	%esi, %ebx
	cmpb	%dl, %bl
	setge	%dl
	andl	%edi, %edx
	testb	%dl, %dl
	je	.L33
	subl	$12, %esp
	pushl	%eax
	call	__asan_report_store4
.L33:
	movl	-28(%ebp), %eax
	movl	%eax, (%ecx)
	leal	-12(%ebp), %esp
	popl	%ebx
	.cfi_restore 3
	popl	%esi
	.cfi_restore 6
	popl	%edi
	.cfi_restore 7
	popl	%ebp
	.cfi_restore 5
	.cfi_def_cfa 4, 4
	ret
	.cfi_endproc
.LFE5:
	.size	handle_alrm, .-handle_alrm
	.section	.rodata
	.align 32
.LC5:
	.string	"-"
	.zero	62
	.align 32
.LC6:
	.string	"re-opening logfile"
	.zero	45
	.align 32
.LC7:
	.string	"a"
	.zero	62
	.align 32
.LC8:
	.string	"re-opening %.80s - %m"
	.zero	42
	.text
	.type	re_open_logfile, @function
re_open_logfile:
.LASANPC6:
.LFB6:
	.cfi_startproc
	pushl	%ebp
	.cfi_def_cfa_offset 8
	.cfi_offset 5, -8
	movl	%esp, %ebp
	.cfi_def_cfa_register 5
	subl	$24, %esp
	movl	no_log, %eax
	testl	%eax, %eax
	jne	.L35
	movl	hs, %eax
	testl	%eax, %eax
	jne	.L36
.L35:
	jmp	.L34
.L36:
	movl	logfile, %eax
	testl	%eax, %eax
	je	.L34
	movl	logfile, %eax
	subl	$8, %esp
	pushl	$.LC5
	pushl	%eax
	call	strcmp
	addl	$16, %esp
	testl	%eax, %eax
	je	.L34
	subl	$8, %esp
	pushl	$.LC6
	pushl	$5
	call	syslog
	addl	$16, %esp
	movl	logfile, %eax
	subl	$8, %esp
	pushl	$.LC7
	pushl	%eax
	call	fopen
	addl	$16, %esp
	movl	%eax, -16(%ebp)
	movl	logfile, %eax
	subl	$8, %esp
	pushl	$384
	pushl	%eax
	call	chmod
	addl	$16, %esp
	movl	%eax, -12(%ebp)
	cmpl	$0, -16(%ebp)
	je	.L38
	cmpl	$0, -12(%ebp)
	je	.L39
.L38:
	movl	logfile, %eax
	subl	$4, %esp
	pushl	%eax
	pushl	$.LC8
	pushl	$2
	call	syslog
	addl	$16, %esp
	jmp	.L34
.L39:
	subl	$12, %esp
	pushl	-16(%ebp)
	call	fileno
	addl	$16, %esp
	subl	$4, %esp
	pushl	$1
	pushl	$2
	pushl	%eax
	call	fcntl
	addl	$16, %esp
	movl	hs, %eax
	subl	$8, %esp
	pushl	-16(%ebp)
	pushl	%eax
	call	httpd_set_logfp
	addl	$16, %esp
.L34:
	leave
	.cfi_restore 5
	.cfi_def_cfa 4, 4
	ret
	.cfi_endproc
.LFE6:
	.size	re_open_logfile, .-re_open_logfile
	.globl	__asan_stack_malloc_7
	.section	.rodata
	.align 4
.LC9:
	.string	"6 32 4 5 gotv4 96 4 5 gotv6 160 8 2 tv 224 128 3 sa4 384 128 3 sa6 544 4097 3 cwd "
	.globl	__asan_stack_free_7
	.align 32
.LC10:
	.string	"can't find any valid address"
	.zero	35
	.align 32
.LC11:
	.string	"%s: can't find any valid address\n"
	.zero	62
	.align 32
.LC12:
	.string	"unknown user - '%.80s'"
	.zero	41
	.align 32
.LC13:
	.string	"%s: unknown user - '%s'\n"
	.zero	39
	.align 32
.LC14:
	.string	"/dev/null"
	.zero	54
	.align 32
.LC15:
	.string	"%.80s - %m"
	.zero	53
	.align 32
.LC16:
	.string	"logfile is not an absolute path, you may not be able to re-open it"
	.zero	61
	.align 32
.LC17:
	.string	"%s: logfile is not an absolute path, you may not be able to re-open it\n"
	.zero	56
	.align 32
.LC18:
	.string	"fchown logfile - %m"
	.zero	44
	.align 32
.LC19:
	.string	"fchown logfile"
	.zero	49
	.align 32
.LC20:
	.string	"chdir - %m"
	.zero	53
	.align 32
.LC21:
	.string	"chdir"
	.zero	58
	.align 32
.LC22:
	.string	"/"
	.zero	62
	.align 32
.LC23:
	.string	"daemon - %m"
	.zero	52
	.align 32
.LC24:
	.string	"w"
	.zero	62
	.align 32
.LC25:
	.string	"%d\n"
	.zero	60
	.align 32
.LC26:
	.string	"fdwatch initialization failure"
	.zero	33
	.align 32
.LC27:
	.string	"chroot - %m"
	.zero	52
	.align 32
.LC28:
	.string	"chroot"
	.zero	57
	.align 32
.LC29:
	.string	"logfile is not within the chroot tree, you will not be able to re-open it"
	.zero	54
	.align 32
.LC30:
	.string	"%s: logfile is not within the chroot tree, you will not be able to re-open it\n"
	.zero	49
	.align 32
.LC31:
	.string	"chroot chdir - %m"
	.zero	46
	.align 32
.LC32:
	.string	"chroot chdir"
	.zero	51
	.align 32
.LC33:
	.string	"data_dir chdir - %m"
	.zero	44
	.align 32
.LC34:
	.string	"data_dir chdir"
	.zero	49
	.align 32
.LC35:
	.string	"tmr_create(occasional) failed"
	.zero	34
	.align 32
.LC36:
	.string	"tmr_create(idle) failed"
	.zero	40
	.align 32
.LC37:
	.string	"tmr_create(update_throttles) failed"
	.zero	60
	.align 32
.LC38:
	.string	"tmr_create(show_stats) failed"
	.zero	34
	.align 32
.LC39:
	.string	"setgroups - %m"
	.zero	49
	.align 32
.LC40:
	.string	"setgid - %m"
	.zero	52
	.align 32
.LC41:
	.string	"initgroups - %m"
	.zero	48
	.align 32
.LC42:
	.string	"setuid - %m"
	.zero	52
	.align 32
.LC43:
	.string	"started as root without requesting chroot(), warning only"
	.zero	38
	.align 32
.LC44:
	.string	"out of memory allocating a connecttab"
	.zero	58
	.align 32
.LC45:
	.string	"fdwatch - %m"
	.zero	51
	.text
	.globl	main
	.type	main, @function
main:
.LASANPC7:
.LFB7:
	.cfi_startproc
	leal	4(%esp), %ecx
	.cfi_def_cfa 1, 0
	andl	$-16, %esp
	pushl	-4(%ecx)
	pushl	%ebp
	.cfi_escape 0x10,0x5,0x2,0x75,0
	movl	%esp, %ebp
	pushl	%edi
	pushl	%esi
	pushl	%ebx
	pushl	%ecx
	.cfi_escape 0xf,0x3,0x75,0x70,0x6
	.cfi_escape 0x10,0x7,0x2,0x75,0x7c
	.cfi_escape 0x10,0x6,0x2,0x75,0x78
	.cfi_escape 0x10,0x3,0x2,0x75,0x74
	subl	$4824, %esp
	movl	%ecx, %ebx
	movl	4(%ebx), %eax
	movl	%eax, -4780(%ebp)
	leal	-4728(%ebp), %eax
	cmpl	$0, __asan_option_detect_stack_use_after_return
	je	.L40
	subl	$8, %esp
	pushl	%eax
	pushl	$4700
	call	__asan_stack_malloc_7
	addl	$16, %esp
.L40:
	leal	4704(%eax), %edx
	movl	%edx, -4784(%ebp)
	movl	$1102416563, (%eax)
	movl	$.LC9, 4(%eax)
	movl	$.LASANPC7, 8(%eax)
	shrl	$3, %eax
	movl	$-235802127, 536870912(%eax)
	movl	$-185273340, 536870916(%eax)
	movl	$-218959118, 536870920(%eax)
	movl	$-185273340, 536870924(%eax)
	movl	$-218959118, 536870928(%eax)
	movl	$-185273344, 536870932(%eax)
	movl	$-218959118, 536870936(%eax)
	movl	$-218959118, 536870956(%eax)
	movl	$-218959118, 536870976(%eax)
	movl	$-185273343, 536871492(%eax)
	movl	%gs:20, %eax
	movl	%eax, -28(%ebp)
	xorl	%eax, %eax
	movl	$32767, -4768(%ebp)
	movl	$32767, -4764(%ebp)
	movl	-4780(%ebp), %eax
	movl	%eax, %edx
	shrl	$3, %edx
	addl	$536870912, %edx
	movzbl	(%edx), %edx
	testb	%dl, %dl
	setne	%cl
	movl	%ecx, %edi
	movl	%eax, %esi
	andl	$7, %esi
	addl	$3, %esi
	movl	%esi, %ecx
	cmpb	%dl, %cl
	setge	%dl
	andl	%edi, %edx
	testb	%dl, %dl
	je	.L46
	subl	$12, %esp
	pushl	%eax
	call	__asan_report_load4
.L46:
	movl	-4780(%ebp), %eax
	movl	(%eax), %eax
	movl	%eax, argv0
	movl	argv0, %eax
	subl	$8, %esp
	pushl	$47
	pushl	%eax
	call	strrchr
	addl	$16, %esp
	movl	%eax, -4772(%ebp)
	cmpl	$0, -4772(%ebp)
	je	.L47
	addl	$1, -4772(%ebp)
	jmp	.L48
.L47:
	movl	argv0, %eax
	movl	%eax, -4772(%ebp)
.L48:
	subl	$4, %esp
	pushl	$24
	pushl	$9
	pushl	-4772(%ebp)
	call	openlog
	addl	$16, %esp
	subl	$8, %esp
	pushl	-4780(%ebp)
	pushl	(%ebx)
	call	parse_args
	addl	$16, %esp
	call	tzset
	subl	$8, %esp
	movl	-4784(%ebp), %edi
	movl	%edi, %eax
	subl	$4608, %eax
	pushl	%eax
	pushl	$128
	movl	%edi, %eax
	subl	$4320, %eax
	pushl	%eax
	movl	%edi, %eax
	subl	$4672, %eax
	pushl	%eax
	pushl	$128
	movl	%edi, %eax
	subl	$4480, %eax
	pushl	%eax
	call	lookup_hostname
	addl	$32, %esp
	movl	%edi, %eax
	movl	-4672(%eax), %eax
	testl	%eax, %eax
	jne	.L49
	movl	-4784(%ebp), %eax
	movl	-4608(%eax), %eax
	testl	%eax, %eax
	jne	.L49
	subl	$8, %esp
	pushl	$.LC10
	pushl	$3
	call	syslog
	addl	$16, %esp
	movl	argv0, %edi
	movl	$stderr, %eax
	movl	%eax, %edx
	shrl	$3, %edx
	addl	$536870912, %edx
	movzbl	(%edx), %edx
	testb	%dl, %dl
	setne	%bl
	movl	%eax, %esi
	andl	$7, %esi
	addl	$3, %esi
	movl	%esi, %ecx
	cmpb	%dl, %cl
	setge	%dl
	andl	%ebx, %edx
	testb	%dl, %dl
	je	.L50
	subl	$12, %esp
	pushl	%eax
	call	__asan_report_load4
.L50:
	movl	stderr, %eax
	subl	$4, %esp
	pushl	%edi
	pushl	$.LC11
	pushl	%eax
	call	fprintf
	addl	$16, %esp
	call	__asan_handle_no_return
	subl	$12, %esp
	pushl	$1
	call	exit
.L49:
	movl	$0, numthrottles
	movl	$0, maxthrottles
	movl	$0, throttles
	movl	throttlefile, %eax
	testl	%eax, %eax
	je	.L51
	movl	throttlefile, %eax
	subl	$12, %esp
	pushl	%eax
	call	read_throttlefile
	addl	$16, %esp
.L51:
	call	getuid
	testl	%eax, %eax
	jne	.L52
	movl	user, %eax
	subl	$12, %esp
	pushl	%eax
	call	getpwnam
	addl	$16, %esp
	movl	%eax, -4752(%ebp)
	cmpl	$0, -4752(%ebp)
	jne	.L53
	movl	user, %eax
	subl	$4, %esp
	pushl	%eax
	pushl	$.LC12
	pushl	$2
	call	syslog
	addl	$16, %esp
	movl	user, %ebx
	movl	argv0, %eax
	movl	%eax, -4784(%ebp)
	movl	$stderr, %eax
	movl	%eax, %edx
	shrl	$3, %edx
	addl	$536870912, %edx
	movzbl	(%edx), %edx
	testb	%dl, %dl
	setne	%cl
	movl	%ecx, %esi
	movl	%eax, %edi
	andl	$7, %edi
	addl	$3, %edi
	movl	%edi, %ecx
	cmpb	%dl, %cl
	setge	%dl
	andl	%esi, %edx
	testb	%dl, %dl
	je	.L54
	subl	$12, %esp
	pushl	%eax
	call	__asan_report_load4
.L54:
	movl	stderr, %eax
	pushl	%ebx
	pushl	-4784(%ebp)
	pushl	$.LC13
	pushl	%eax
	call	fprintf
	addl	$16, %esp
	call	__asan_handle_no_return
	subl	$12, %esp
	pushl	$1
	call	exit
.L53:
	movl	-4752(%ebp), %eax
	addl	$8, %eax
	movl	%eax, %edx
	shrl	$3, %edx
	addl	$536870912, %edx
	movzbl	(%edx), %edx
	testb	%dl, %dl
	setne	%cl
	movl	%eax, %ebx
	andl	$7, %ebx
	addl	$3, %ebx
	cmpb	%dl, %bl
	setge	%dl
	andl	%ecx, %edx
	testb	%dl, %dl
	je	.L55
	subl	$12, %esp
	pushl	%eax
	call	__asan_report_load4
.L55:
	movl	-4752(%ebp), %eax
	movl	8(%eax), %eax
	movl	%eax, -4768(%ebp)
	movl	-4752(%ebp), %eax
	addl	$12, %eax
	movl	%eax, %edx
	shrl	$3, %edx
	addl	$536870912, %edx
	movzbl	(%edx), %edx
	testb	%dl, %dl
	setne	%cl
	movl	%eax, %ebx
	andl	$7, %ebx
	addl	$3, %ebx
	cmpb	%dl, %bl
	setge	%dl
	andl	%ecx, %edx
	testb	%dl, %dl
	je	.L56
	subl	$12, %esp
	pushl	%eax
	call	__asan_report_load4
.L56:
	movl	-4752(%ebp), %eax
	movl	12(%eax), %eax
	movl	%eax, -4764(%ebp)
.L52:
	movl	logfile, %eax
	testl	%eax, %eax
	je	.L57
	movl	logfile, %eax
	subl	$8, %esp
	pushl	$.LC14
	pushl	%eax
	call	strcmp
	addl	$16, %esp
	testl	%eax, %eax
	jne	.L58
	movl	$1, no_log
	movl	$0, -4760(%ebp)
	jmp	.L67
.L58:
	movl	logfile, %eax
	subl	$8, %esp
	pushl	$.LC5
	pushl	%eax
	call	strcmp
	addl	$16, %esp
	testl	%eax, %eax
	jne	.L60
	movl	$stdout, %eax
	movl	%eax, %edx
	shrl	$3, %edx
	addl	$536870912, %edx
	movzbl	(%edx), %edx
	testb	%dl, %dl
	setne	%cl
	movl	%eax, %ebx
	andl	$7, %ebx
	addl	$3, %ebx
	cmpb	%dl, %bl
	setge	%dl
	andl	%ecx, %edx
	testb	%dl, %dl
	je	.L61
	subl	$12, %esp
	pushl	%eax
	call	__asan_report_load4
.L61:
	movl	stdout, %eax
	movl	%eax, -4760(%ebp)
	jmp	.L67
.L60:
	movl	logfile, %eax
	subl	$8, %esp
	pushl	$.LC7
	pushl	%eax
	call	fopen
	addl	$16, %esp
	movl	%eax, -4760(%ebp)
	movl	logfile, %eax
	subl	$8, %esp
	pushl	$384
	pushl	%eax
	call	chmod
	addl	$16, %esp
	movl	%eax, -4748(%ebp)
	cmpl	$0, -4760(%ebp)
	je	.L62
	cmpl	$0, -4748(%ebp)
	je	.L63
.L62:
	movl	logfile, %eax
	subl	$4, %esp
	pushl	%eax
	pushl	$.LC15
	pushl	$2
	call	syslog
	addl	$16, %esp
	movl	logfile, %eax
	subl	$12, %esp
	pushl	%eax
	call	perror
	addl	$16, %esp
	call	__asan_handle_no_return
	subl	$12, %esp
	pushl	$1
	call	exit
.L63:
	movl	logfile, %edx
	movl	%edx, %eax
	movl	%eax, %ecx
	shrl	$3, %ecx
	addl	$536870912, %ecx
	movzbl	(%ecx), %ecx
	testb	%cl, %cl
	setne	%bl
	movl	%ebx, %edi
	movl	%eax, %esi
	andl	$7, %esi
	movl	%esi, %ebx
	cmpb	%cl, %bl
	setge	%cl
	andl	%edi, %ecx
	testb	%cl, %cl
	je	.L64
	subl	$12, %esp
	pushl	%eax
	call	__asan_report_load1
.L64:
	movzbl	(%edx), %eax
	cmpb	$47, %al
	je	.L65
	subl	$8, %esp
	pushl	$.LC16
	pushl	$4
	call	syslog
	addl	$16, %esp
	movl	argv0, %edi
	movl	$stderr, %eax
	movl	%eax, %edx
	shrl	$3, %edx
	addl	$536870912, %edx
	movzbl	(%edx), %edx
	testb	%dl, %dl
	setne	%bl
	movl	%eax, %esi
	andl	$7, %esi
	addl	$3, %esi
	movl	%esi, %ecx
	cmpb	%dl, %cl
	setge	%dl
	andl	%ebx, %edx
	testb	%dl, %dl
	je	.L66
	subl	$12, %esp
	pushl	%eax
	call	__asan_report_load4
.L66:
	movl	stderr, %eax
	subl	$4, %esp
	pushl	%edi
	pushl	$.LC17
	pushl	%eax
	call	fprintf
	addl	$16, %esp
.L65:
	subl	$12, %esp
	pushl	-4760(%ebp)
	call	fileno
	addl	$16, %esp
	subl	$4, %esp
	pushl	$1
	pushl	$2
	pushl	%eax
	call	fcntl
	addl	$16, %esp
	call	getuid
	testl	%eax, %eax
	jne	.L67
	subl	$12, %esp
	pushl	-4760(%ebp)
	call	fileno
	addl	$16, %esp
	subl	$4, %esp
	pushl	-4764(%ebp)
	pushl	-4768(%ebp)
	pushl	%eax
	call	fchown
	addl	$16, %esp
	testl	%eax, %eax
	jns	.L67
	subl	$8, %esp
	pushl	$.LC18
	pushl	$4
	call	syslog
	addl	$16, %esp
	subl	$12, %esp
	pushl	$.LC19
	call	perror
	addl	$16, %esp
	jmp	.L67
.L57:
	movl	$0, -4760(%ebp)
.L67:
	movl	dir, %eax
	testl	%eax, %eax
	je	.L68
	movl	dir, %eax
	subl	$12, %esp
	pushl	%eax
	call	chdir
	addl	$16, %esp
	testl	%eax, %eax
	jns	.L68
	subl	$8, %esp
	pushl	$.LC20
	pushl	$2
	call	syslog
	addl	$16, %esp
	subl	$12, %esp
	pushl	$.LC21
	call	perror
	addl	$16, %esp
	call	__asan_handle_no_return
	subl	$12, %esp
	pushl	$1
	call	exit
.L68:
	subl	$8, %esp
	pushl	$4096
	movl	-4784(%ebp), %edi
	movl	%edi, %eax
	subl	$4160, %eax
	pushl	%eax
	call	getcwd
	addl	$16, %esp
	subl	$12, %esp
	movl	%edi, %eax
	subl	$4160, %eax
	pushl	%eax
	call	strlen
	addl	$16, %esp
	movl	%eax, %esi
	movl	%edi, %eax
	leal	-4160(%eax), %ebx
	movl	%ebx, %edx
	movl	%edx, %eax
	shrl	$3, %eax
	addl	$536870912, %eax
	movzbl	(%eax), %ecx
	testb	%cl, %cl
	setne	%al
	movl	%eax, %edi
	movl	%edx, %eax
	andl	$7, %eax
	cmpb	%cl, %al
	setge	%al
	andl	%edi, %eax
	testb	%al, %al
	je	.L69
	subl	$12, %esp
	pushl	%edx
	call	__asan_report_load1
.L69:
	movl	%esi, %eax
	addl	%ebx, %eax
	movl	%eax, %edx
	shrl	$3, %edx
	addl	$536870912, %edx
	movzbl	(%edx), %edx
	testb	%dl, %dl
	setne	%cl
	movl	%eax, %ebx
	andl	$7, %ebx
	cmpb	%dl, %bl
	setge	%dl
	andl	%ecx, %edx
	testb	%dl, %dl
	je	.L70
	subl	$12, %esp
	pushl	%eax
	call	__asan_report_load1
.L70:
	leal	-1(%esi), %ecx
	movl	-4784(%ebp), %eax
	subl	$4160, %eax
	addl	%ecx, %eax
	movl	%eax, %edx
	shrl	$3, %edx
	addl	$536870912, %edx
	movzbl	(%edx), %edx
	testb	%dl, %dl
	setne	%bl
	movl	%ebx, %edi
	movl	%eax, %esi
	andl	$7, %esi
	movl	%esi, %ebx
	cmpb	%dl, %bl
	setge	%dl
	andl	%edi, %edx
	testb	%dl, %dl
	je	.L71
	subl	$12, %esp
	pushl	%eax
	call	__asan_report_load1
.L71:
	movl	-4784(%ebp), %eax
	movzbl	-4160(%ecx,%eax), %eax
	cmpb	$47, %al
	je	.L72
	movl	-4784(%ebp), %ebx
	movl	%ebx, %eax
	subl	$4160, %eax
	movl	$-1, %ecx
	movl	%eax, %edx
	movl	$0, %eax
	movl	%edx, %edi
	repnz; scasb
	movl	%ecx, %eax
	notl	%eax
	leal	-1(%eax), %esi
	movl	%ebx, %eax
	leal	-4160(%eax), %ebx
	movl	%ebx, %edx
	movl	%edx, %eax
	shrl	$3, %eax
	addl	$536870912, %eax
	movzbl	(%eax), %ecx
	testb	%cl, %cl
	setne	%al
	movl	%eax, %edi
	movl	%edx, %eax
	andl	$7, %eax
	cmpb	%cl, %al
	setge	%al
	andl	%edi, %eax
	testb	%al, %al
	je	.L73
	subl	$12, %esp
	pushl	%edx
	call	__asan_report_load1
.L73:
	movl	%esi, %eax
	addl	%ebx, %eax
	movl	%eax, %edx
	shrl	$3, %edx
	addl	$536870912, %edx
	movzbl	(%edx), %edx
	testb	%dl, %dl
	setne	%cl
	movl	%eax, %ebx
	andl	$7, %ebx
	cmpb	%dl, %bl
	setge	%dl
	andl	%ecx, %edx
	testb	%dl, %dl
	je	.L74
	subl	$12, %esp
	pushl	%eax
	call	__asan_report_load1
.L74:
	movl	-4784(%ebp), %eax
	subl	$4160, %eax
	addl	%esi, %eax
	movl	%eax, -4788(%ebp)
	movl	$.LC22, %eax
	movl	$2, %edi
	movl	%eax, %ebx
	movl	%ebx, %eax
	shrl	$3, %eax
	addl	$536870912, %eax
	movzbl	(%eax), %edx
	testb	%dl, %dl
	setne	%cl
	movl	%ebx, %eax
	andl	$7, %eax
	cmpb	%dl, %al
	setge	%al
	andl	%eax, %ecx
	movb	%cl, -4792(%ebp)
	leal	-1(%edi), %eax
	leal	(%ebx,%eax), %esi
	movl	%esi, %eax
	shrl	$3, %eax
	addl	$536870912, %eax
	movzbl	(%eax), %edx
	testb	%dl, %dl
	setne	%cl
	movl	%esi, %eax
	andl	$7, %eax
	cmpb	%dl, %al
	setge	%al
	andl	%ecx, %eax
	orb	-4792(%ebp), %al
	testb	%al, %al
	je	.L75
	subl	$8, %esp
	pushl	%edi
	pushl	%ebx
	call	__asan_report_load_n
.L75:
	movl	$2, %edi
	movl	-4788(%ebp), %ebx
	movl	%ebx, %eax
	shrl	$3, %eax
	addl	$536870912, %eax
	movzbl	(%eax), %edx
	testb	%dl, %dl
	setne	%cl
	movl	%ebx, %eax
	andl	$7, %eax
	cmpb	%dl, %al
	setge	%al
	andl	%eax, %ecx
	movb	%cl, -4792(%ebp)
	leal	-1(%edi), %eax
	leal	(%ebx,%eax), %esi
	movl	%esi, %eax
	shrl	$3, %eax
	addl	$536870912, %eax
	movzbl	(%eax), %edx
	testb	%dl, %dl
	setne	%cl
	movl	%esi, %eax
	andl	$7, %eax
	cmpb	%dl, %al
	setge	%al
	andl	%ecx, %eax
	orb	-4792(%ebp), %al
	testb	%al, %al
	je	.L76
	subl	$8, %esp
	pushl	%edi
	pushl	%ebx
	call	__asan_report_store_n
.L76:
	movl	-4788(%ebp), %eax
	movw	$47, (%eax)
.L72:
	movl	debug, %eax
	testl	%eax, %eax
	jne	.L77
	movl	$stdin, %eax
	movl	%eax, %edx
	shrl	$3, %edx
	addl	$536870912, %edx
	movzbl	(%edx), %edx
	testb	%dl, %dl
	setne	%cl
	movl	%eax, %ebx
	andl	$7, %ebx
	addl	$3, %ebx
	cmpb	%dl, %bl
	setge	%dl
	andl	%ecx, %edx
	testb	%dl, %dl
	je	.L78
	subl	$12, %esp
	pushl	%eax
	call	__asan_report_load4
.L78:
	movl	stdin, %eax
	subl	$12, %esp
	pushl	%eax
	call	fclose
	addl	$16, %esp
	movl	$stdout, %eax
	movl	%eax, %edx
	shrl	$3, %edx
	addl	$536870912, %edx
	movzbl	(%edx), %edx
	testb	%dl, %dl
	setne	%cl
	movl	%eax, %ebx
	andl	$7, %ebx
	addl	$3, %ebx
	cmpb	%dl, %bl
	setge	%dl
	andl	%ecx, %edx
	testb	%dl, %dl
	je	.L79
	subl	$12, %esp
	pushl	%eax
	call	__asan_report_load4
.L79:
	movl	stdout, %eax
	cmpl	%eax, -4760(%ebp)
	je	.L80
	movl	stdout, %eax
	subl	$12, %esp
	pushl	%eax
	call	fclose
	addl	$16, %esp
.L80:
	movl	$stderr, %eax
	movl	%eax, %edx
	shrl	$3, %edx
	addl	$536870912, %edx
	movzbl	(%edx), %edx
	testb	%dl, %dl
	setne	%cl
	movl	%eax, %ebx
	andl	$7, %ebx
	addl	$3, %ebx
	cmpb	%dl, %bl
	setge	%dl
	andl	%ecx, %edx
	testb	%dl, %dl
	je	.L81
	subl	$12, %esp
	pushl	%eax
	call	__asan_report_load4
.L81:
	movl	stderr, %eax
	subl	$12, %esp
	pushl	%eax
	call	fclose
	addl	$16, %esp
	subl	$8, %esp
	pushl	$1
	pushl	$1
	call	daemon
	addl	$16, %esp
	testl	%eax, %eax
	jns	.L82
	subl	$8, %esp
	pushl	$.LC23
	pushl	$2
	call	syslog
	addl	$16, %esp
	call	__asan_handle_no_return
	subl	$12, %esp
	pushl	$1
	call	exit
.L77:
	call	setsid
.L82:
	movl	pidfile, %eax
	testl	%eax, %eax
	je	.L83
	movl	pidfile, %eax
	subl	$8, %esp
	pushl	$.LC24
	pushl	%eax
	call	fopen
	addl	$16, %esp
	movl	%eax, -4744(%ebp)
	cmpl	$0, -4744(%ebp)
	jne	.L84
	movl	pidfile, %eax
	subl	$4, %esp
	pushl	%eax
	pushl	$.LC15
	pushl	$2
	call	syslog
	addl	$16, %esp
	call	__asan_handle_no_return
	subl	$12, %esp
	pushl	$1
	call	exit
.L84:
	call	getpid
	subl	$4, %esp
	pushl	%eax
	pushl	$.LC25
	pushl	-4744(%ebp)
	call	fprintf
	addl	$16, %esp
	subl	$12, %esp
	pushl	-4744(%ebp)
	call	fclose
	addl	$16, %esp
.L83:
	call	fdwatch_get_nfiles
	movl	%eax, max_connects
	movl	max_connects, %eax
	testl	%eax, %eax
	jns	.L85
	subl	$8, %esp
	pushl	$.LC26
	pushl	$2
	call	syslog
	addl	$16, %esp
	call	__asan_handle_no_return
	subl	$12, %esp
	pushl	$1
	call	exit
.L85:
	movl	max_connects, %eax
	subl	$10, %eax
	movl	%eax, max_connects
	movl	do_chroot, %eax
	testl	%eax, %eax
	je	.L86
	subl	$12, %esp
	movl	-4784(%ebp), %eax
	subl	$4160, %eax
	pushl	%eax
	call	chroot
	addl	$16, %esp
	testl	%eax, %eax
	jns	.L87
	subl	$8, %esp
	pushl	$.LC27
	pushl	$2
	call	syslog
	addl	$16, %esp
	subl	$12, %esp
	pushl	$.LC28
	call	perror
	addl	$16, %esp
	call	__asan_handle_no_return
	subl	$12, %esp
	pushl	$1
	call	exit
.L87:
	movl	logfile, %eax
	testl	%eax, %eax
	je	.L88
	movl	logfile, %eax
	subl	$8, %esp
	pushl	$.LC5
	pushl	%eax
	call	strcmp
	addl	$16, %esp
	testl	%eax, %eax
	je	.L88
	subl	$12, %esp
	movl	-4784(%ebp), %edi
	movl	%edi, %eax
	subl	$4160, %eax
	pushl	%eax
	call	strlen
	addl	$16, %esp
	movl	%eax, %esi
	movl	%edi, %eax
	leal	-4160(%eax), %ebx
	movl	%ebx, %edx
	movl	%edx, %eax
	shrl	$3, %eax
	addl	$536870912, %eax
	movzbl	(%eax), %ecx
	testb	%cl, %cl
	setne	%al
	movl	%eax, %edi
	movl	%edx, %eax
	andl	$7, %eax
	cmpb	%cl, %al
	setge	%al
	andl	%edi, %eax
	testb	%al, %al
	je	.L89
	subl	$12, %esp
	pushl	%edx
	call	__asan_report_load1
.L89:
	movl	%esi, %eax
	addl	%ebx, %eax
	movl	%eax, %edx
	shrl	$3, %edx
	addl	$536870912, %edx
	movzbl	(%edx), %edx
	testb	%dl, %dl
	setne	%cl
	movl	%eax, %ebx
	andl	$7, %ebx
	cmpb	%dl, %bl
	setge	%dl
	andl	%ecx, %edx
	testb	%dl, %dl
	je	.L90
	subl	$12, %esp
	pushl	%eax
	call	__asan_report_load1
.L90:
	movl	logfile, %eax
	subl	$4, %esp
	pushl	%esi
	movl	-4784(%ebp), %edi
	leal	-4160(%edi), %edx
	pushl	%edx
	pushl	%eax
	call	strncmp
	addl	$16, %esp
	testl	%eax, %eax
	jne	.L91
	movl	logfile, %eax
	movl	%eax, -4788(%ebp)
	subl	$12, %esp
	movl	-4784(%ebp), %ebx
	movl	%ebx, %eax
	subl	$4160, %eax
	pushl	%eax
	call	strlen
	addl	$16, %esp
	movl	%eax, %edi
	movl	%ebx, %eax
	leal	-4160(%eax), %ebx
	movl	%ebx, %edx
	movl	%edx, %eax
	shrl	$3, %eax
	addl	$536870912, %eax
	movzbl	(%eax), %ecx
	testb	%cl, %cl
	setne	%al
	movl	%eax, %esi
	movl	%edx, %eax
	andl	$7, %eax
	cmpb	%cl, %al
	setge	%al
	andl	%esi, %eax
	testb	%al, %al
	je	.L92
	subl	$12, %esp
	pushl	%edx
	call	__asan_report_load1
.L92:
	movl	%edi, %eax
	addl	%ebx, %eax
	movl	%eax, %edx
	movl	%edx, %eax
	shrl	$3, %eax
	addl	$536870912, %eax
	movzbl	(%eax), %ecx
	testb	%cl, %cl
	setne	%bl
	movl	%edx, %eax
	andl	$7, %eax
	cmpb	%cl, %al
	setge	%al
	andl	%ebx, %eax
	testb	%al, %al
	je	.L93
	subl	$12, %esp
	pushl	%edx
	call	__asan_report_load1
.L93:
	leal	-1(%edi), %eax
	movl	-4788(%ebp), %edx
	addl	%eax, %edx
	movl	logfile, %eax
	subl	$8, %esp
	pushl	%edx
	pushl	%eax
	call	strcpy
	addl	$16, %esp
	jmp	.L88
.L91:
	subl	$8, %esp
	pushl	$.LC29
	pushl	$4
	call	syslog
	addl	$16, %esp
	movl	argv0, %edi
	movl	$stderr, %eax
	movl	%eax, %edx
	shrl	$3, %edx
	addl	$536870912, %edx
	movzbl	(%edx), %edx
	testb	%dl, %dl
	setne	%bl
	movl	%eax, %esi
	andl	$7, %esi
	addl	$3, %esi
	movl	%esi, %ecx
	cmpb	%dl, %cl
	setge	%dl
	andl	%ebx, %edx
	testb	%dl, %dl
	je	.L94
	subl	$12, %esp
	pushl	%eax
	call	__asan_report_load4
.L94:
	movl	stderr, %eax
	subl	$4, %esp
	pushl	%edi
	pushl	$.LC30
	pushl	%eax
	call	fprintf
	addl	$16, %esp
.L88:
	movl	$.LC22, %eax
	movl	$2, %esi
	movl	%eax, %ebx
	movl	%ebx, %eax
	shrl	$3, %eax
	addl	$536870912, %eax
	movzbl	(%eax), %eax
	testb	%al, %al
	setne	%dl
	movl	%ebx, %ecx
	andl	$7, %ecx
	cmpb	%al, %cl
	setge	%al
	movl	%edx, %edi
	andl	%eax, %edi
	leal	-1(%esi), %eax
	leal	(%ebx,%eax), %edx
	movl	%edx, %eax
	shrl	$3, %eax
	addl	$536870912, %eax
	movzbl	(%eax), %ecx
	testb	%cl, %cl
	setne	-4788(%ebp)
	andl	$7, %edx
	movl	%edx, %eax
	cmpb	%cl, %al
	setge	%al
	andb	-4788(%ebp), %al
	orl	%edi, %eax
	testb	%al, %al
	je	.L95
	subl	$8, %esp
	pushl	%esi
	pushl	%ebx
	call	__asan_report_load_n
.L95:
	movl	-4784(%ebp), %eax
	subl	$4160, %eax
	movl	$2, %esi
	movl	%eax, %ebx
	movl	%ebx, %eax
	shrl	$3, %eax
	addl	$536870912, %eax
	movzbl	(%eax), %eax
	testb	%al, %al
	setne	%dl
	movl	%ebx, %ecx
	andl	$7, %ecx
	cmpb	%al, %cl
	setge	%al
	movl	%edx, %edi
	andl	%eax, %edi
	leal	-1(%esi), %eax
	leal	(%ebx,%eax), %edx
	movl	%edx, %eax
	shrl	$3, %eax
	addl	$536870912, %eax
	movzbl	(%eax), %ecx
	testb	%cl, %cl
	setne	-4788(%ebp)
	andl	$7, %edx
	movl	%edx, %eax
	cmpb	%cl, %al
	setge	%al
	andb	-4788(%ebp), %al
	orl	%edi, %eax
	testb	%al, %al
	je	.L96
	subl	$8, %esp
	pushl	%esi
	pushl	%ebx
	call	__asan_report_store_n
.L96:
	movl	-4784(%ebp), %edi
	movl	%edi, %eax
	subl	$4160, %eax
	movw	$47, (%eax)
	subl	$12, %esp
	movl	%edi, %eax
	subl	$4160, %eax
	pushl	%eax
	call	chdir
	addl	$16, %esp
	testl	%eax, %eax
	jns	.L86
	subl	$8, %esp
	pushl	$.LC31
	pushl	$2
	call	syslog
	addl	$16, %esp
	subl	$12, %esp
	pushl	$.LC32
	call	perror
	addl	$16, %esp
	call	__asan_handle_no_return
	subl	$12, %esp
	pushl	$1
	call	exit
.L86:
	movl	data_dir, %eax
	testl	%eax, %eax
	je	.L97
	movl	data_dir, %eax
	subl	$12, %esp
	pushl	%eax
	call	chdir
	addl	$16, %esp
	testl	%eax, %eax
	jns	.L97
	subl	$8, %esp
	pushl	$.LC33
	pushl	$2
	call	syslog
	addl	$16, %esp
	subl	$12, %esp
	pushl	$.LC34
	call	perror
	addl	$16, %esp
	call	__asan_handle_no_return
	subl	$12, %esp
	pushl	$1
	call	exit
.L97:
	subl	$8, %esp
	pushl	$handle_term
	pushl	$15
	call	sigset
	addl	$16, %esp
	subl	$8, %esp
	pushl	$handle_term
	pushl	$2
	call	sigset
	addl	$16, %esp
	subl	$8, %esp
	pushl	$handle_chld
	pushl	$17
	call	sigset
	addl	$16, %esp
	subl	$8, %esp
	pushl	$1
	pushl	$13
	call	sigset
	addl	$16, %esp
	subl	$8, %esp
	pushl	$handle_hup
	pushl	$1
	call	sigset
	addl	$16, %esp
	subl	$8, %esp
	pushl	$handle_usr1
	pushl	$10
	call	sigset
	addl	$16, %esp
	subl	$8, %esp
	pushl	$handle_usr2
	pushl	$12
	call	sigset
	addl	$16, %esp
	subl	$8, %esp
	pushl	$handle_alrm
	pushl	$14
	call	sigset
	addl	$16, %esp
	movl	$0, got_hup
	movl	$0, got_usr1
	movl	$0, watchdog_flag
	subl	$12, %esp
	pushl	$360
	call	alarm
	addl	$16, %esp
	call	tmr_init
	movl	no_empty_referers, %esi
	movl	local_pattern, %edi
	movl	url_pattern, %eax
	movl	%eax, -4788(%ebp)
	movl	do_global_passwd, %eax
	movl	%eax, -4792(%ebp)
	movl	do_vhost, %eax
	movl	%eax, -4796(%ebp)
	movl	no_symlink_check, %eax
	movl	%eax, -4800(%ebp)
	movl	no_log, %eax
	movl	%eax, -4804(%ebp)
	movl	max_age, %eax
	movl	%eax, -4808(%ebp)
	movl	p3p, %eax
	movl	%eax, -4812(%ebp)
	movl	charset, %eax
	movl	%eax, -4816(%ebp)
	movl	cgi_limit, %eax
	movl	%eax, -4820(%ebp)
	movl	cgi_pattern, %eax
	movl	%eax, -4824(%ebp)
	movzwl	port, %eax
	movzwl	%ax, %eax
	movl	%eax, -4828(%ebp)
	movl	-4784(%ebp), %eax
	movl	-4608(%eax), %eax
	testl	%eax, %eax
	je	.L98
	movl	-4784(%ebp), %eax
	leal	-4320(%eax), %ebx
	jmp	.L99
.L98:
	movl	$0, %ebx
.L99:
	movl	-4784(%ebp), %eax
	movl	-4672(%eax), %eax
	testl	%eax, %eax
	je	.L100
	movl	-4784(%ebp), %eax
	leal	-4480(%eax), %ecx
	jmp	.L101
.L100:
	movl	$0, %ecx
.L101:
	movl	hostname, %edx
	subl	$8, %esp
	pushl	%esi
	pushl	%edi
	pushl	-4788(%ebp)
	pushl	-4792(%ebp)
	pushl	-4796(%ebp)
	pushl	-4800(%ebp)
	pushl	-4760(%ebp)
	pushl	-4804(%ebp)
	movl	-4784(%ebp), %eax
	subl	$4160, %eax
	pushl	%eax
	pushl	-4808(%ebp)
	pushl	-4812(%ebp)
	pushl	-4816(%ebp)
	pushl	-4820(%ebp)
	pushl	-4824(%ebp)
	pushl	-4828(%ebp)
	pushl	%ebx
	pushl	%ecx
	pushl	%edx
	call	httpd_initialize
	addl	$80, %esp
	movl	%eax, hs
	movl	hs, %eax
	testl	%eax, %eax
	jne	.L102
	call	__asan_handle_no_return
	subl	$12, %esp
	pushl	$1
	call	exit
.L102:
	subl	$12, %esp
	pushl	$1
	pushl	$120000
	pushl	JunkClientData
	pushl	$occasional
	pushl	$0
	call	tmr_create
	addl	$32, %esp
	testl	%eax, %eax
	jne	.L103
	subl	$8, %esp
	pushl	$.LC35
	pushl	$2
	call	syslog
	addl	$16, %esp
	call	__asan_handle_no_return
	subl	$12, %esp
	pushl	$1
	call	exit
.L103:
	subl	$12, %esp
	pushl	$1
	pushl	$5000
	pushl	JunkClientData
	pushl	$idle
	pushl	$0
	call	tmr_create
	addl	$32, %esp
	testl	%eax, %eax
	jne	.L104
	subl	$8, %esp
	pushl	$.LC36
	pushl	$2
	call	syslog
	addl	$16, %esp
	call	__asan_handle_no_return
	subl	$12, %esp
	pushl	$1
	call	exit
.L104:
	movl	numthrottles, %eax
	testl	%eax, %eax
	jle	.L105
	subl	$12, %esp
	pushl	$1
	pushl	$2000
	pushl	JunkClientData
	pushl	$update_throttles
	pushl	$0
	call	tmr_create
	addl	$32, %esp
	testl	%eax, %eax
	jne	.L105
	subl	$8, %esp
	pushl	$.LC37
	pushl	$2
	call	syslog
	addl	$16, %esp
	call	__asan_handle_no_return
	subl	$12, %esp
	pushl	$1
	call	exit
.L105:
	subl	$12, %esp
	pushl	$1
	pushl	$3600000
	pushl	JunkClientData
	pushl	$show_stats
	pushl	$0
	call	tmr_create
	addl	$32, %esp
	testl	%eax, %eax
	jne	.L106
	subl	$8, %esp
	pushl	$.LC38
	pushl	$2
	call	syslog
	addl	$16, %esp
	call	__asan_handle_no_return
	subl	$12, %esp
	pushl	$1
	call	exit
.L106:
	subl	$12, %esp
	pushl	$0
	call	time
	addl	$16, %esp
	movl	%eax, stats_time
	movl	stats_time, %eax
	movl	%eax, start_time
	movl	$0, stats_connections
	movl	$0, stats_bytes
	movl	$0, stats_simultaneous
	call	getuid
	testl	%eax, %eax
	jne	.L107
	subl	$8, %esp
	pushl	$0
	pushl	$0
	call	setgroups
	addl	$16, %esp
	testl	%eax, %eax
	jns	.L108
	subl	$8, %esp
	pushl	$.LC39
	pushl	$2
	call	syslog
	addl	$16, %esp
	call	__asan_handle_no_return
	subl	$12, %esp
	pushl	$1
	call	exit
.L108:
	subl	$12, %esp
	pushl	-4764(%ebp)
	call	setgid
	addl	$16, %esp
	testl	%eax, %eax
	jns	.L109
	subl	$8, %esp
	pushl	$.LC40
	pushl	$2
	call	syslog
	addl	$16, %esp
	call	__asan_handle_no_return
	subl	$12, %esp
	pushl	$1
	call	exit
.L109:
	movl	user, %eax
	subl	$8, %esp
	pushl	-4764(%ebp)
	pushl	%eax
	call	initgroups
	addl	$16, %esp
	testl	%eax, %eax
	jns	.L110
	subl	$8, %esp
	pushl	$.LC41
	pushl	$4
	call	syslog
	addl	$16, %esp
.L110:
	subl	$12, %esp
	pushl	-4768(%ebp)
	call	setuid
	addl	$16, %esp
	testl	%eax, %eax
	jns	.L111
	subl	$8, %esp
	pushl	$.LC42
	pushl	$2
	call	syslog
	addl	$16, %esp
	call	__asan_handle_no_return
	subl	$12, %esp
	pushl	$1
	call	exit
.L111:
	movl	do_chroot, %eax
	testl	%eax, %eax
	jne	.L107
	subl	$8, %esp
	pushl	$.LC43
	pushl	$4
	call	syslog
	addl	$16, %esp
.L107:
	movl	max_connects, %eax
	movl	%eax, %edx
	movl	%edx, %eax
	addl	%eax, %eax
	addl	%edx, %eax
	sall	$5, %eax
	subl	$12, %esp
	pushl	%eax
	call	malloc
	addl	$16, %esp
	movl	%eax, connects
	movl	connects, %eax
	testl	%eax, %eax
	jne	.L112
	subl	$8, %esp
	pushl	$.LC44
	pushl	$2
	call	syslog
	addl	$16, %esp
	call	__asan_handle_no_return
	subl	$12, %esp
	pushl	$1
	call	exit
.L112:
	movl	$0, -4756(%ebp)
	jmp	.L113
.L117:
	movl	connects, %ecx
	movl	-4756(%ebp), %edx
	movl	%edx, %eax
	addl	%eax, %eax
	addl	%edx, %eax
	sall	$5, %eax
	addl	%eax, %ecx
	movl	%ecx, %eax
	movl	%eax, %edx
	shrl	$3, %edx
	addl	$536870912, %edx
	movzbl	(%edx), %edx
	testb	%dl, %dl
	setne	%bl
	movl	%ebx, %edi
	movl	%eax, %esi
	andl	$7, %esi
	addl	$3, %esi
	movl	%esi, %ebx
	cmpb	%dl, %bl
	setge	%dl
	andl	%edi, %edx
	testb	%dl, %dl
	je	.L114
	subl	$12, %esp
	pushl	%eax
	call	__asan_report_store4
.L114:
	movl	$0, (%ecx)
	movl	connects, %ecx
	movl	-4756(%ebp), %edx
	movl	%edx, %eax
	addl	%eax, %eax
	addl	%edx, %eax
	sall	$5, %eax
	addl	%eax, %ecx
	movl	-4756(%ebp), %eax
	leal	1(%eax), %esi
	leal	4(%ecx), %eax
	movl	%eax, %edx
	movl	%edx, %eax
	shrl	$3, %eax
	addl	$536870912, %eax
	movzbl	(%eax), %ebx
	testb	%bl, %bl
	setne	%al
	movl	%eax, %edi
	movl	%edx, %eax
	andl	$7, %eax
	addl	$3, %eax
	cmpb	%bl, %al
	setge	%al
	andl	%edi, %eax
	testb	%al, %al
	je	.L115
	subl	$12, %esp
	pushl	%edx
	call	__asan_report_store4
.L115:
	movl	%esi, 4(%ecx)
	movl	connects, %ecx
	movl	-4756(%ebp), %edx
	movl	%edx, %eax
	addl	%eax, %eax
	addl	%edx, %eax
	sall	$5, %eax
	leal	(%ecx,%eax), %edx
	leal	8(%edx), %eax
	movl	%eax, %ecx
	shrl	$3, %ecx
	addl	$536870912, %ecx
	movzbl	(%ecx), %ecx
	testb	%cl, %cl
	setne	%bl
	movl	%ebx, %edi
	movl	%eax, %esi
	andl	$7, %esi
	addl	$3, %esi
	movl	%esi, %ebx
	cmpb	%cl, %bl
	setge	%cl
	andl	%edi, %ecx
	testb	%cl, %cl
	je	.L116
	subl	$12, %esp
	pushl	%eax
	call	__asan_report_store4
.L116:
	movl	$0, 8(%edx)
	addl	$1, -4756(%ebp)
.L113:
	movl	max_connects, %eax
	cmpl	%eax, -4756(%ebp)
	jl	.L117
	movl	connects, %edx
	movl	max_connects, %eax
	movl	%eax, %ecx
	movl	%ecx, %eax
	addl	%eax, %eax
	addl	%ecx, %eax
	sall	$5, %eax
	subl	$96, %eax
	addl	%eax, %edx
	leal	4(%edx), %eax
	movl	%eax, %ecx
	shrl	$3, %ecx
	addl	$536870912, %ecx
	movzbl	(%ecx), %ecx
	testb	%cl, %cl
	setne	%bl
	movl	%ebx, %edi
	movl	%eax, %esi
	andl	$7, %esi
	addl	$3, %esi
	movl	%esi, %ebx
	cmpb	%cl, %bl
	setge	%cl
	andl	%edi, %ecx
	testb	%cl, %cl
	je	.L118
	subl	$12, %esp
	pushl	%eax
	call	__asan_report_store4
.L118:
	movl	$-1, 4(%edx)
	movl	$0, first_free_connect
	movl	$0, num_connects
	movl	$0, httpd_conn_count
	movl	hs, %eax
	testl	%eax, %eax
	je	.L119
	movl	hs, %edx
	leal	40(%edx), %eax
	movl	%eax, %ecx
	shrl	$3, %ecx
	addl	$536870912, %ecx
	movzbl	(%ecx), %ecx
	testb	%cl, %cl
	setne	%bl
	movl	%ebx, %edi
	movl	%eax, %esi
	andl	$7, %esi
	addl	$3, %esi
	movl	%esi, %ebx
	cmpb	%cl, %bl
	setge	%cl
	andl	%edi, %ecx
	testb	%cl, %cl
	je	.L120
	subl	$12, %esp
	pushl	%eax
	call	__asan_report_load4
.L120:
	movl	40(%edx), %eax
	cmpl	$-1, %eax
	je	.L121
	movl	hs, %edx
	leal	40(%edx), %eax
	movl	%eax, %ecx
	shrl	$3, %ecx
	addl	$536870912, %ecx
	movzbl	(%ecx), %ecx
	testb	%cl, %cl
	setne	%bl
	movl	%ebx, %edi
	movl	%eax, %esi
	andl	$7, %esi
	addl	$3, %esi
	movl	%esi, %ebx
	cmpb	%cl, %bl
	setge	%cl
	andl	%edi, %ecx
	testb	%cl, %cl
	je	.L122
	subl	$12, %esp
	pushl	%eax
	call	__asan_report_load4
.L122:
	movl	40(%edx), %eax
	subl	$4, %esp
	pushl	$0
	pushl	$0
	pushl	%eax
	call	fdwatch_add_fd
	addl	$16, %esp
.L121:
	movl	hs, %edx
	leal	44(%edx), %eax
	movl	%eax, %ecx
	shrl	$3, %ecx
	addl	$536870912, %ecx
	movzbl	(%ecx), %ecx
	testb	%cl, %cl
	setne	%bl
	movl	%ebx, %edi
	movl	%eax, %esi
	andl	$7, %esi
	addl	$3, %esi
	movl	%esi, %ebx
	cmpb	%cl, %bl
	setge	%cl
	andl	%edi, %ecx
	testb	%cl, %cl
	je	.L123
	subl	$12, %esp
	pushl	%eax
	call	__asan_report_load4
.L123:
	movl	44(%edx), %eax
	cmpl	$-1, %eax
	je	.L119
	movl	hs, %edx
	leal	44(%edx), %eax
	movl	%eax, %ecx
	shrl	$3, %ecx
	addl	$536870912, %ecx
	movzbl	(%ecx), %ecx
	testb	%cl, %cl
	setne	%bl
	movl	%ebx, %edi
	movl	%eax, %esi
	andl	$7, %esi
	addl	$3, %esi
	movl	%esi, %ebx
	cmpb	%cl, %bl
	setge	%cl
	andl	%edi, %ecx
	testb	%cl, %cl
	je	.L124
	subl	$12, %esp
	pushl	%eax
	call	__asan_report_load4
.L124:
	movl	44(%edx), %eax
	subl	$4, %esp
	pushl	$0
	pushl	$0
	pushl	%eax
	call	fdwatch_add_fd
	addl	$16, %esp
.L119:
	subl	$12, %esp
	movl	-4784(%ebp), %eax
	subl	$4544, %eax
	pushl	%eax
	call	tmr_prepare_timeval
	addl	$16, %esp
	jmp	.L125
.L157:
	movl	got_hup, %eax
	testl	%eax, %eax
	je	.L126
	call	re_open_logfile
	movl	$0, got_hup
.L126:
	subl	$12, %esp
	movl	-4784(%ebp), %eax
	subl	$4544, %eax
	pushl	%eax
	call	tmr_mstimeout
	addl	$16, %esp
	subl	$12, %esp
	pushl	%eax
	call	fdwatch
	addl	$16, %esp
	movl	%eax, -4740(%ebp)
	cmpl	$0, -4740(%ebp)
	jns	.L127
	call	__errno_location
	movl	%eax, %ecx
	movl	%ecx, %eax
	movl	%eax, %edx
	shrl	$3, %edx
	addl	$536870912, %edx
	movzbl	(%edx), %edx
	testb	%dl, %dl
	setne	%bl
	movl	%ebx, %edi
	movl	%eax, %esi
	andl	$7, %esi
	addl	$3, %esi
	movl	%esi, %ebx
	cmpb	%dl, %bl
	setge	%dl
	andl	%edi, %edx
	testb	%dl, %dl
	je	.L128
	subl	$12, %esp
	pushl	%eax
	call	__asan_report_load4
.L128:
	movl	(%ecx), %eax
	cmpl	$4, %eax
	je	.L129
	call	__errno_location
	movl	%eax, %ecx
	movl	%ecx, %eax
	movl	%eax, %edx
	shrl	$3, %edx
	addl	$536870912, %edx
	movzbl	(%edx), %edx
	testb	%dl, %dl
	setne	%bl
	movl	%ebx, %edi
	movl	%eax, %esi
	andl	$7, %esi
	addl	$3, %esi
	movl	%esi, %ebx
	cmpb	%dl, %bl
	setge	%dl
	andl	%edi, %edx
	testb	%dl, %dl
	je	.L130
	subl	$12, %esp
	pushl	%eax
	call	__asan_report_load4
.L130:
	movl	(%ecx), %eax
	cmpl	$11, %eax
	jne	.L131
.L129:
	jmp	.L125
.L131:
	subl	$8, %esp
	pushl	$.LC45
	pushl	$3
	call	syslog
	addl	$16, %esp
	call	__asan_handle_no_return
	subl	$12, %esp
	pushl	$1
	call	exit
.L127:
	subl	$12, %esp
	movl	-4784(%ebp), %eax
	subl	$4544, %eax
	pushl	%eax
	call	tmr_prepare_timeval
	addl	$16, %esp
	cmpl	$0, -4740(%ebp)
	jne	.L132
	subl	$12, %esp
	movl	-4784(%ebp), %eax
	subl	$4544, %eax
	pushl	%eax
	call	tmr_run
	addl	$16, %esp
	jmp	.L125
.L132:
	movl	hs, %eax
	testl	%eax, %eax
	je	.L133
	movl	hs, %edx
	leal	44(%edx), %eax
	movl	%eax, %ecx
	shrl	$3, %ecx
	addl	$536870912, %ecx
	movzbl	(%ecx), %ecx
	testb	%cl, %cl
	setne	%bl
	movl	%ebx, %edi
	movl	%eax, %esi
	andl	$7, %esi
	addl	$3, %esi
	movl	%esi, %ebx
	cmpb	%cl, %bl
	setge	%cl
	andl	%edi, %ecx
	testb	%cl, %cl
	je	.L134
	subl	$12, %esp
	pushl	%eax
	call	__asan_report_load4
.L134:
	movl	44(%edx), %eax
	cmpl	$-1, %eax
	je	.L133
	movl	hs, %edx
	leal	44(%edx), %eax
	movl	%eax, %ecx
	shrl	$3, %ecx
	addl	$536870912, %ecx
	movzbl	(%ecx), %ecx
	testb	%cl, %cl
	setne	%bl
	movl	%ebx, %edi
	movl	%eax, %esi
	andl	$7, %esi
	addl	$3, %esi
	movl	%esi, %ebx
	cmpb	%cl, %bl
	setge	%cl
	andl	%edi, %ecx
	testb	%cl, %cl
	je	.L135
	subl	$12, %esp
	pushl	%eax
	call	__asan_report_load4
.L135:
	movl	44(%edx), %eax
	subl	$12, %esp
	pushl	%eax
	call	fdwatch_check_fd
	addl	$16, %esp
	testl	%eax, %eax
	je	.L133
	movl	hs, %edx
	leal	44(%edx), %eax
	movl	%eax, %ecx
	shrl	$3, %ecx
	addl	$536870912, %ecx
	movzbl	(%ecx), %ecx
	testb	%cl, %cl
	setne	%bl
	movl	%ebx, %edi
	movl	%eax, %esi
	andl	$7, %esi
	addl	$3, %esi
	movl	%esi, %ebx
	cmpb	%cl, %bl
	setge	%cl
	andl	%edi, %ecx
	testb	%cl, %cl
	je	.L136
	subl	$12, %esp
	pushl	%eax
	call	__asan_report_load4
.L136:
	movl	44(%edx), %eax
	subl	$8, %esp
	pushl	%eax
	movl	-4784(%ebp), %eax
	subl	$4544, %eax
	pushl	%eax
	call	handle_newconnect
	addl	$16, %esp
	testl	%eax, %eax
	je	.L133
	jmp	.L125
.L133:
	movl	hs, %eax
	testl	%eax, %eax
	je	.L137
	movl	hs, %edx
	leal	40(%edx), %eax
	movl	%eax, %ecx
	shrl	$3, %ecx
	addl	$536870912, %ecx
	movzbl	(%ecx), %ecx
	testb	%cl, %cl
	setne	%bl
	movl	%ebx, %edi
	movl	%eax, %esi
	andl	$7, %esi
	addl	$3, %esi
	movl	%esi, %ebx
	cmpb	%cl, %bl
	setge	%cl
	andl	%edi, %ecx
	testb	%cl, %cl
	je	.L138
	subl	$12, %esp
	pushl	%eax
	call	__asan_report_load4
.L138:
	movl	40(%edx), %eax
	cmpl	$-1, %eax
	je	.L137
	movl	hs, %edx
	leal	40(%edx), %eax
	movl	%eax, %ecx
	shrl	$3, %ecx
	addl	$536870912, %ecx
	movzbl	(%ecx), %ecx
	testb	%cl, %cl
	setne	%bl
	movl	%ebx, %edi
	movl	%eax, %esi
	andl	$7, %esi
	addl	$3, %esi
	movl	%esi, %ebx
	cmpb	%cl, %bl
	setge	%cl
	andl	%edi, %ecx
	testb	%cl, %cl
	je	.L139
	subl	$12, %esp
	pushl	%eax
	call	__asan_report_load4
.L139:
	movl	40(%edx), %eax
	subl	$12, %esp
	pushl	%eax
	call	fdwatch_check_fd
	addl	$16, %esp
	testl	%eax, %eax
	je	.L137
	movl	hs, %edx
	leal	40(%edx), %eax
	movl	%eax, %ecx
	shrl	$3, %ecx
	addl	$536870912, %ecx
	movzbl	(%ecx), %ecx
	testb	%cl, %cl
	setne	%bl
	movl	%ebx, %edi
	movl	%eax, %esi
	andl	$7, %esi
	addl	$3, %esi
	movl	%esi, %ebx
	cmpb	%cl, %bl
	setge	%cl
	andl	%edi, %ecx
	testb	%cl, %cl
	je	.L140
	subl	$12, %esp
	pushl	%eax
	call	__asan_report_load4
.L140:
	movl	40(%edx), %eax
	subl	$8, %esp
	pushl	%eax
	movl	-4784(%ebp), %eax
	subl	$4544, %eax
	pushl	%eax
	call	handle_newconnect
	addl	$16, %esp
	testl	%eax, %eax
	je	.L137
	jmp	.L125
.L137:
	jmp	.L141
.L150:
	cmpl	$0, -4736(%ebp)
	jne	.L142
	jmp	.L141
.L142:
	movl	-4736(%ebp), %eax
	addl	$8, %eax
	movl	%eax, %edx
	shrl	$3, %edx
	addl	$536870912, %edx
	movzbl	(%edx), %edx
	testb	%dl, %dl
	setne	%cl
	movl	%eax, %ebx
	andl	$7, %ebx
	addl	$3, %ebx
	cmpb	%dl, %bl
	setge	%dl
	andl	%ecx, %edx
	testb	%dl, %dl
	je	.L143
	subl	$12, %esp
	pushl	%eax
	call	__asan_report_load4
.L143:
	movl	-4736(%ebp), %eax
	movl	8(%eax), %eax
	movl	%eax, -4732(%ebp)
	movl	-4732(%ebp), %eax
	addl	$448, %eax
	movl	%eax, %edx
	shrl	$3, %edx
	addl	$536870912, %edx
	movzbl	(%edx), %edx
	testb	%dl, %dl
	setne	%cl
	movl	%eax, %ebx
	andl	$7, %ebx
	addl	$3, %ebx
	cmpb	%dl, %bl
	setge	%dl
	andl	%ecx, %edx
	testb	%dl, %dl
	je	.L144
	subl	$12, %esp
	pushl	%eax
	call	__asan_report_load4
.L144:
	movl	-4732(%ebp), %eax
	movl	448(%eax), %eax
	subl	$12, %esp
	pushl	%eax
	call	fdwatch_check_fd
	addl	$16, %esp
	testl	%eax, %eax
	jne	.L145
	subl	$8, %esp
	movl	-4784(%ebp), %eax
	subl	$4544, %eax
	pushl	%eax
	pushl	-4736(%ebp)
	call	clear_connection
	addl	$16, %esp
	jmp	.L141
.L145:
	movl	-4736(%ebp), %eax
	movl	%eax, %edx
	shrl	$3, %edx
	addl	$536870912, %edx
	movzbl	(%edx), %edx
	testb	%dl, %dl
	setne	%cl
	movl	%eax, %ebx
	andl	$7, %ebx
	addl	$3, %ebx
	cmpb	%dl, %bl
	setge	%dl
	andl	%ecx, %edx
	testb	%dl, %dl
	je	.L146
	subl	$12, %esp
	pushl	%eax
	call	__asan_report_load4
.L146:
	movl	-4736(%ebp), %eax
	movl	(%eax), %eax
	cmpl	$2, %eax
	je	.L147
	cmpl	$4, %eax
	je	.L148
	cmpl	$1, %eax
	je	.L149
	jmp	.L141
.L149:
	subl	$8, %esp
	movl	-4784(%ebp), %eax
	subl	$4544, %eax
	pushl	%eax
	pushl	-4736(%ebp)
	call	handle_read
	addl	$16, %esp
	jmp	.L141
.L147:
	subl	$8, %esp
	movl	-4784(%ebp), %eax
	subl	$4544, %eax
	pushl	%eax
	pushl	-4736(%ebp)
	call	handle_send
	addl	$16, %esp
	jmp	.L141
.L148:
	subl	$8, %esp
	movl	-4784(%ebp), %eax
	subl	$4544, %eax
	pushl	%eax
	pushl	-4736(%ebp)
	call	handle_linger
	addl	$16, %esp
	nop
.L141:
	call	fdwatch_get_next_client_data
	movl	%eax, -4736(%ebp)
	cmpl	$-1, -4736(%ebp)
	jne	.L150
	subl	$12, %esp
	movl	-4784(%ebp), %eax
	subl	$4544, %eax
	pushl	%eax
	call	tmr_run
	addl	$16, %esp
	movl	got_usr1, %eax
	testl	%eax, %eax
	je	.L125
	movl	terminate, %eax
	testl	%eax, %eax
	jne	.L125
	movl	$1, terminate
	movl	hs, %eax
	testl	%eax, %eax
	je	.L125
	movl	hs, %edx
	leal	40(%edx), %eax
	movl	%eax, %ecx
	shrl	$3, %ecx
	addl	$536870912, %ecx
	movzbl	(%ecx), %ecx
	testb	%cl, %cl
	setne	%bl
	movl	%ebx, %edi
	movl	%eax, %esi
	andl	$7, %esi
	addl	$3, %esi
	movl	%esi, %ebx
	cmpb	%cl, %bl
	setge	%cl
	andl	%edi, %ecx
	testb	%cl, %cl
	je	.L151
	subl	$12, %esp
	pushl	%eax
	call	__asan_report_load4
.L151:
	movl	40(%edx), %eax
	cmpl	$-1, %eax
	je	.L152
	movl	hs, %edx
	leal	40(%edx), %eax
	movl	%eax, %ecx
	shrl	$3, %ecx
	addl	$536870912, %ecx
	movzbl	(%ecx), %ecx
	testb	%cl, %cl
	setne	%bl
	movl	%ebx, %edi
	movl	%eax, %esi
	andl	$7, %esi
	addl	$3, %esi
	movl	%esi, %ebx
	cmpb	%cl, %bl
	setge	%cl
	andl	%edi, %ecx
	testb	%cl, %cl
	je	.L153
	subl	$12, %esp
	pushl	%eax
	call	__asan_report_load4
.L153:
	movl	40(%edx), %eax
	subl	$12, %esp
	pushl	%eax
	call	fdwatch_del_fd
	addl	$16, %esp
.L152:
	movl	hs, %edx
	leal	44(%edx), %eax
	movl	%eax, %ecx
	shrl	$3, %ecx
	addl	$536870912, %ecx
	movzbl	(%ecx), %ecx
	testb	%cl, %cl
	setne	%bl
	movl	%ebx, %edi
	movl	%eax, %esi
	andl	$7, %esi
	addl	$3, %esi
	movl	%esi, %ebx
	cmpb	%cl, %bl
	setge	%cl
	andl	%edi, %ecx
	testb	%cl, %cl
	je	.L154
	subl	$12, %esp
	pushl	%eax
	call	__asan_report_load4
.L154:
	movl	44(%edx), %eax
	cmpl	$-1, %eax
	je	.L155
	movl	hs, %edx
	leal	44(%edx), %eax
	movl	%eax, %ecx
	shrl	$3, %ecx
	addl	$536870912, %ecx
	movzbl	(%ecx), %ecx
	testb	%cl, %cl
	setne	%bl
	movl	%ebx, %edi
	movl	%eax, %esi
	andl	$7, %esi
	addl	$3, %esi
	movl	%esi, %ebx
	cmpb	%cl, %bl
	setge	%cl
	andl	%edi, %ecx
	testb	%cl, %cl
	je	.L156
	subl	$12, %esp
	pushl	%eax
	call	__asan_report_load4
.L156:
	movl	44(%edx), %eax
	subl	$12, %esp
	pushl	%eax
	call	fdwatch_del_fd
	addl	$16, %esp
.L155:
	movl	hs, %eax
	subl	$12, %esp
	pushl	%eax
	call	httpd_unlisten
	addl	$16, %esp
.L125:
	movl	terminate, %eax
	testl	%eax, %eax
	je	.L157
	movl	num_connects, %eax
	testl	%eax, %eax
	jg	.L157
	call	shut_down
	subl	$8, %esp
	pushl	$.LC3
	pushl	$5
	call	syslog
	addl	$16, %esp
	call	closelog
	call	__asan_handle_no_return
	subl	$12, %esp
	pushl	$0
	call	exit
	.cfi_endproc
.LFE7:
	.size	main, .-main
	.section	.rodata
	.align 32
.LC46:
	.string	"nobody"
	.zero	57
	.align 32
.LC47:
	.string	"iso-8859-1"
	.zero	53
	.align 32
.LC48:
	.string	""
	.zero	63
	.align 32
.LC49:
	.string	"-V"
	.zero	61
	.align 32
.LC50:
	.string	"thttpd/2.27.0 Oct 3, 2014"
	.zero	38
	.align 32
.LC51:
	.string	"-C"
	.zero	61
	.align 32
.LC52:
	.string	"-p"
	.zero	61
	.align 32
.LC53:
	.string	"-d"
	.zero	61
	.align 32
.LC54:
	.string	"-r"
	.zero	61
	.align 32
.LC55:
	.string	"-nor"
	.zero	59
	.align 32
.LC56:
	.string	"-dd"
	.zero	60
	.align 32
.LC57:
	.string	"-s"
	.zero	61
	.align 32
.LC58:
	.string	"-nos"
	.zero	59
	.align 32
.LC59:
	.string	"-u"
	.zero	61
	.align 32
.LC60:
	.string	"-c"
	.zero	61
	.align 32
.LC61:
	.string	"-t"
	.zero	61
	.align 32
.LC62:
	.string	"-h"
	.zero	61
	.align 32
.LC63:
	.string	"-l"
	.zero	61
	.align 32
.LC64:
	.string	"-v"
	.zero	61
	.align 32
.LC65:
	.string	"-nov"
	.zero	59
	.align 32
.LC66:
	.string	"-g"
	.zero	61
	.align 32
.LC67:
	.string	"-nog"
	.zero	59
	.align 32
.LC68:
	.string	"-i"
	.zero	61
	.align 32
.LC69:
	.string	"-T"
	.zero	61
	.align 32
.LC70:
	.string	"-P"
	.zero	61
	.align 32
.LC71:
	.string	"-M"
	.zero	61
	.align 32
.LC72:
	.string	"-D"
	.zero	61
	.text
	.type	parse_args, @function
parse_args:
.LASANPC8:
.LFB8:
	.cfi_startproc
	pushl	%ebp
	.cfi_def_cfa_offset 8
	.cfi_offset 5, -8
	movl	%esp, %ebp
	.cfi_def_cfa_register 5
	pushl	%edi
	pushl	%esi
	pushl	%ebx
	subl	$28, %esp
	.cfi_offset 7, -12
	.cfi_offset 6, -16
	.cfi_offset 3, -20
	movl	$0, debug
	movw	$80, port
	movl	$0, dir
	movl	$0, data_dir
	movl	$0, do_chroot
	movl	$0, no_log
	movl	do_chroot, %eax
	movl	%eax, no_symlink_check
	movl	$0, do_vhost
	movl	$0, do_global_passwd
	movl	$0, cgi_pattern
	movl	$0, cgi_limit
	movl	$0, url_pattern
	movl	$0, no_empty_referers
	movl	$0, local_pattern
	movl	$0, throttlefile
	movl	$0, hostname
	movl	$0, logfile
	movl	$0, pidfile
	movl	$.LC46, user
	movl	$.LC47, charset
	movl	$.LC48, p3p
	movl	$-1, max_age
	movl	$1, -28(%ebp)
	jmp	.L160
.L224:
	movl	-28(%ebp), %eax
	leal	0(,%eax,4), %edx
	movl	12(%ebp), %eax
	leal	(%edx,%eax), %ecx
	movl	%ecx, %eax
	movl	%eax, %edx
	shrl	$3, %edx
	addl	$536870912, %edx
	movzbl	(%edx), %edx
	testb	%dl, %dl
	setne	%bl
	movl	%ebx, %edi
	movl	%eax, %esi
	andl	$7, %esi
	addl	$3, %esi
	movl	%esi, %ebx
	cmpb	%dl, %bl
	setge	%dl
	andl	%edi, %edx
	testb	%dl, %dl
	je	.L161
	subl	$12, %esp
	pushl	%eax
	call	__asan_report_load4
.L161:
	movl	(%ecx), %eax
	subl	$8, %esp
	pushl	$.LC49
	pushl	%eax
	call	strcmp
	addl	$16, %esp
	testl	%eax, %eax
	jne	.L162
	subl	$12, %esp
	pushl	$.LC50
	call	puts
	addl	$16, %esp
	call	__asan_handle_no_return
	subl	$12, %esp
	pushl	$0
	call	exit
.L162:
	movl	-28(%ebp), %eax
	leal	0(,%eax,4), %edx
	movl	12(%ebp), %eax
	leal	(%edx,%eax), %ecx
	movl	%ecx, %eax
	movl	%eax, %edx
	shrl	$3, %edx
	addl	$536870912, %edx
	movzbl	(%edx), %edx
	testb	%dl, %dl
	setne	%bl
	movl	%ebx, %edi
	movl	%eax, %esi
	andl	$7, %esi
	addl	$3, %esi
	movl	%esi, %ebx
	cmpb	%dl, %bl
	setge	%dl
	andl	%edi, %edx
	testb	%dl, %dl
	je	.L163
	subl	$12, %esp
	pushl	%eax
	call	__asan_report_load4
.L163:
	movl	(%ecx), %eax
	subl	$8, %esp
	pushl	$.LC51
	pushl	%eax
	call	strcmp
	addl	$16, %esp
	testl	%eax, %eax
	jne	.L164
	movl	-28(%ebp), %eax
	addl	$1, %eax
	cmpl	8(%ebp), %eax
	jge	.L164
	addl	$1, -28(%ebp)
	movl	-28(%ebp), %eax
	leal	0(,%eax,4), %edx
	movl	12(%ebp), %eax
	leal	(%edx,%eax), %ecx
	movl	%ecx, %eax
	movl	%eax, %edx
	shrl	$3, %edx
	addl	$536870912, %edx
	movzbl	(%edx), %edx
	testb	%dl, %dl
	setne	%bl
	movl	%ebx, %edi
	movl	%eax, %esi
	andl	$7, %esi
	addl	$3, %esi
	movl	%esi, %ebx
	cmpb	%dl, %bl
	setge	%dl
	andl	%edi, %edx
	testb	%dl, %dl
	je	.L165
	subl	$12, %esp
	pushl	%eax
	call	__asan_report_load4
.L165:
	movl	(%ecx), %eax
	subl	$12, %esp
	pushl	%eax
	call	read_config
	addl	$16, %esp
	jmp	.L166
.L164:
	movl	-28(%ebp), %eax
	leal	0(,%eax,4), %edx
	movl	12(%ebp), %eax
	leal	(%edx,%eax), %ecx
	movl	%ecx, %eax
	movl	%eax, %edx
	shrl	$3, %edx
	addl	$536870912, %edx
	movzbl	(%edx), %edx
	testb	%dl, %dl
	setne	%bl
	movl	%ebx, %edi
	movl	%eax, %esi
	andl	$7, %esi
	addl	$3, %esi
	movl	%esi, %ebx
	cmpb	%dl, %bl
	setge	%dl
	andl	%edi, %edx
	testb	%dl, %dl
	je	.L167
	subl	$12, %esp
	pushl	%eax
	call	__asan_report_load4
.L167:
	movl	(%ecx), %eax
	subl	$8, %esp
	pushl	$.LC52
	pushl	%eax
	call	strcmp
	addl	$16, %esp
	testl	%eax, %eax
	jne	.L168
	movl	-28(%ebp), %eax
	addl	$1, %eax
	cmpl	8(%ebp), %eax
	jge	.L168
	addl	$1, -28(%ebp)
	movl	-28(%ebp), %eax
	leal	0(,%eax,4), %edx
	movl	12(%ebp), %eax
	leal	(%edx,%eax), %ecx
	movl	%ecx, %eax
	movl	%eax, %edx
	shrl	$3, %edx
	addl	$536870912, %edx
	movzbl	(%edx), %edx
	testb	%dl, %dl
	setne	%bl
	movl	%ebx, %edi
	movl	%eax, %esi
	andl	$7, %esi
	addl	$3, %esi
	movl	%esi, %ebx
	cmpb	%dl, %bl
	setge	%dl
	andl	%edi, %edx
	testb	%dl, %dl
	je	.L169
	subl	$12, %esp
	pushl	%eax
	call	__asan_report_load4
.L169:
	movl	(%ecx), %eax
	subl	$12, %esp
	pushl	%eax
	call	atoi
	addl	$16, %esp
	movw	%ax, port
	jmp	.L166
.L168:
	movl	-28(%ebp), %eax
	leal	0(,%eax,4), %edx
	movl	12(%ebp), %eax
	leal	(%edx,%eax), %ecx
	movl	%ecx, %eax
	movl	%eax, %edx
	shrl	$3, %edx
	addl	$536870912, %edx
	movzbl	(%edx), %edx
	testb	%dl, %dl
	setne	%bl
	movl	%ebx, %edi
	movl	%eax, %esi
	andl	$7, %esi
	addl	$3, %esi
	movl	%esi, %ebx
	cmpb	%dl, %bl
	setge	%dl
	andl	%edi, %edx
	testb	%dl, %dl
	je	.L170
	subl	$12, %esp
	pushl	%eax
	call	__asan_report_load4
.L170:
	movl	(%ecx), %eax
	subl	$8, %esp
	pushl	$.LC53
	pushl	%eax
	call	strcmp
	addl	$16, %esp
	testl	%eax, %eax
	jne	.L171
	movl	-28(%ebp), %eax
	addl	$1, %eax
	cmpl	8(%ebp), %eax
	jge	.L171
	addl	$1, -28(%ebp)
	movl	-28(%ebp), %eax
	leal	0(,%eax,4), %edx
	movl	12(%ebp), %eax
	leal	(%edx,%eax), %ecx
	movl	%ecx, %eax
	movl	%eax, %edx
	shrl	$3, %edx
	addl	$536870912, %edx
	movzbl	(%edx), %edx
	testb	%dl, %dl
	setne	%bl
	movl	%ebx, %edi
	movl	%eax, %esi
	andl	$7, %esi
	addl	$3, %esi
	movl	%esi, %ebx
	cmpb	%dl, %bl
	setge	%dl
	andl	%edi, %edx
	testb	%dl, %dl
	je	.L172
	subl	$12, %esp
	pushl	%eax
	call	__asan_report_load4
.L172:
	movl	(%ecx), %eax
	movl	%eax, dir
	jmp	.L166
.L171:
	movl	-28(%ebp), %eax
	leal	0(,%eax,4), %edx
	movl	12(%ebp), %eax
	leal	(%edx,%eax), %ecx
	movl	%ecx, %eax
	movl	%eax, %edx
	shrl	$3, %edx
	addl	$536870912, %edx
	movzbl	(%edx), %edx
	testb	%dl, %dl
	setne	%bl
	movl	%ebx, %edi
	movl	%eax, %esi
	andl	$7, %esi
	addl	$3, %esi
	movl	%esi, %ebx
	cmpb	%dl, %bl
	setge	%dl
	andl	%edi, %edx
	testb	%dl, %dl
	je	.L173
	subl	$12, %esp
	pushl	%eax
	call	__asan_report_load4
.L173:
	movl	(%ecx), %eax
	subl	$8, %esp
	pushl	$.LC54
	pushl	%eax
	call	strcmp
	addl	$16, %esp
	testl	%eax, %eax
	jne	.L174
	movl	$1, do_chroot
	movl	$1, no_symlink_check
	jmp	.L166
.L174:
	movl	-28(%ebp), %eax
	leal	0(,%eax,4), %edx
	movl	12(%ebp), %eax
	leal	(%edx,%eax), %ecx
	movl	%ecx, %eax
	movl	%eax, %edx
	shrl	$3, %edx
	addl	$536870912, %edx
	movzbl	(%edx), %edx
	testb	%dl, %dl
	setne	%bl
	movl	%ebx, %edi
	movl	%eax, %esi
	andl	$7, %esi
	addl	$3, %esi
	movl	%esi, %ebx
	cmpb	%dl, %bl
	setge	%dl
	andl	%edi, %edx
	testb	%dl, %dl
	je	.L175
	subl	$12, %esp
	pushl	%eax
	call	__asan_report_load4
.L175:
	movl	(%ecx), %eax
	subl	$8, %esp
	pushl	$.LC55
	pushl	%eax
	call	strcmp
	addl	$16, %esp
	testl	%eax, %eax
	jne	.L176
	movl	$0, do_chroot
	movl	$0, no_symlink_check
	jmp	.L166
.L176:
	movl	-28(%ebp), %eax
	leal	0(,%eax,4), %edx
	movl	12(%ebp), %eax
	leal	(%edx,%eax), %ecx
	movl	%ecx, %eax
	movl	%eax, %edx
	shrl	$3, %edx
	addl	$536870912, %edx
	movzbl	(%edx), %edx
	testb	%dl, %dl
	setne	%bl
	movl	%ebx, %edi
	movl	%eax, %esi
	andl	$7, %esi
	addl	$3, %esi
	movl	%esi, %ebx
	cmpb	%dl, %bl
	setge	%dl
	andl	%edi, %edx
	testb	%dl, %dl
	je	.L177
	subl	$12, %esp
	pushl	%eax
	call	__asan_report_load4
.L177:
	movl	(%ecx), %eax
	subl	$8, %esp
	pushl	$.LC56
	pushl	%eax
	call	strcmp
	addl	$16, %esp
	testl	%eax, %eax
	jne	.L178
	movl	-28(%ebp), %eax
	addl	$1, %eax
	cmpl	8(%ebp), %eax
	jge	.L178
	addl	$1, -28(%ebp)
	movl	-28(%ebp), %eax
	leal	0(,%eax,4), %edx
	movl	12(%ebp), %eax
	leal	(%edx,%eax), %ecx
	movl	%ecx, %eax
	movl	%eax, %edx
	shrl	$3, %edx
	addl	$536870912, %edx
	movzbl	(%edx), %edx
	testb	%dl, %dl
	setne	%bl
	movl	%ebx, %edi
	movl	%eax, %esi
	andl	$7, %esi
	addl	$3, %esi
	movl	%esi, %ebx
	cmpb	%dl, %bl
	setge	%dl
	andl	%edi, %edx
	testb	%dl, %dl
	je	.L179
	subl	$12, %esp
	pushl	%eax
	call	__asan_report_load4
.L179:
	movl	(%ecx), %eax
	movl	%eax, data_dir
	jmp	.L166
.L178:
	movl	-28(%ebp), %eax
	leal	0(,%eax,4), %edx
	movl	12(%ebp), %eax
	leal	(%edx,%eax), %ecx
	movl	%ecx, %eax
	movl	%eax, %edx
	shrl	$3, %edx
	addl	$536870912, %edx
	movzbl	(%edx), %edx
	testb	%dl, %dl
	setne	%bl
	movl	%ebx, %edi
	movl	%eax, %esi
	andl	$7, %esi
	addl	$3, %esi
	movl	%esi, %ebx
	cmpb	%dl, %bl
	setge	%dl
	andl	%edi, %edx
	testb	%dl, %dl
	je	.L180
	subl	$12, %esp
	pushl	%eax
	call	__asan_report_load4
.L180:
	movl	(%ecx), %eax
	subl	$8, %esp
	pushl	$.LC57
	pushl	%eax
	call	strcmp
	addl	$16, %esp
	testl	%eax, %eax
	jne	.L181
	movl	$0, no_symlink_check
	jmp	.L166
.L181:
	movl	-28(%ebp), %eax
	leal	0(,%eax,4), %edx
	movl	12(%ebp), %eax
	leal	(%edx,%eax), %ecx
	movl	%ecx, %eax
	movl	%eax, %edx
	shrl	$3, %edx
	addl	$536870912, %edx
	movzbl	(%edx), %edx
	testb	%dl, %dl
	setne	%bl
	movl	%ebx, %edi
	movl	%eax, %esi
	andl	$7, %esi
	addl	$3, %esi
	movl	%esi, %ebx
	cmpb	%dl, %bl
	setge	%dl
	andl	%edi, %edx
	testb	%dl, %dl
	je	.L182
	subl	$12, %esp
	pushl	%eax
	call	__asan_report_load4
.L182:
	movl	(%ecx), %eax
	subl	$8, %esp
	pushl	$.LC58
	pushl	%eax
	call	strcmp
	addl	$16, %esp
	testl	%eax, %eax
	jne	.L183
	movl	$1, no_symlink_check
	jmp	.L166
.L183:
	movl	-28(%ebp), %eax
	leal	0(,%eax,4), %edx
	movl	12(%ebp), %eax
	leal	(%edx,%eax), %ecx
	movl	%ecx, %eax
	movl	%eax, %edx
	shrl	$3, %edx
	addl	$536870912, %edx
	movzbl	(%edx), %edx
	testb	%dl, %dl
	setne	%bl
	movl	%ebx, %edi
	movl	%eax, %esi
	andl	$7, %esi
	addl	$3, %esi
	movl	%esi, %ebx
	cmpb	%dl, %bl
	setge	%dl
	andl	%edi, %edx
	testb	%dl, %dl
	je	.L184
	subl	$12, %esp
	pushl	%eax
	call	__asan_report_load4
.L184:
	movl	(%ecx), %eax
	subl	$8, %esp
	pushl	$.LC59
	pushl	%eax
	call	strcmp
	addl	$16, %esp
	testl	%eax, %eax
	jne	.L185
	movl	-28(%ebp), %eax
	addl	$1, %eax
	cmpl	8(%ebp), %eax
	jge	.L185
	addl	$1, -28(%ebp)
	movl	-28(%ebp), %eax
	leal	0(,%eax,4), %edx
	movl	12(%ebp), %eax
	leal	(%edx,%eax), %ecx
	movl	%ecx, %eax
	movl	%eax, %edx
	shrl	$3, %edx
	addl	$536870912, %edx
	movzbl	(%edx), %edx
	testb	%dl, %dl
	setne	%bl
	movl	%ebx, %edi
	movl	%eax, %esi
	andl	$7, %esi
	addl	$3, %esi
	movl	%esi, %ebx
	cmpb	%dl, %bl
	setge	%dl
	andl	%edi, %edx
	testb	%dl, %dl
	je	.L186
	subl	$12, %esp
	pushl	%eax
	call	__asan_report_load4
.L186:
	movl	(%ecx), %eax
	movl	%eax, user
	jmp	.L166
.L185:
	movl	-28(%ebp), %eax
	leal	0(,%eax,4), %edx
	movl	12(%ebp), %eax
	leal	(%edx,%eax), %ecx
	movl	%ecx, %eax
	movl	%eax, %edx
	shrl	$3, %edx
	addl	$536870912, %edx
	movzbl	(%edx), %edx
	testb	%dl, %dl
	setne	%bl
	movl	%ebx, %edi
	movl	%eax, %esi
	andl	$7, %esi
	addl	$3, %esi
	movl	%esi, %ebx
	cmpb	%dl, %bl
	setge	%dl
	andl	%edi, %edx
	testb	%dl, %dl
	je	.L187
	subl	$12, %esp
	pushl	%eax
	call	__asan_report_load4
.L187:
	movl	(%ecx), %eax
	subl	$8, %esp
	pushl	$.LC60
	pushl	%eax
	call	strcmp
	addl	$16, %esp
	testl	%eax, %eax
	jne	.L188
	movl	-28(%ebp), %eax
	addl	$1, %eax
	cmpl	8(%ebp), %eax
	jge	.L188
	addl	$1, -28(%ebp)
	movl	-28(%ebp), %eax
	leal	0(,%eax,4), %edx
	movl	12(%ebp), %eax
	leal	(%edx,%eax), %ecx
	movl	%ecx, %eax
	movl	%eax, %edx
	shrl	$3, %edx
	addl	$536870912, %edx
	movzbl	(%edx), %edx
	testb	%dl, %dl
	setne	%bl
	movl	%ebx, %edi
	movl	%eax, %esi
	andl	$7, %esi
	addl	$3, %esi
	movl	%esi, %ebx
	cmpb	%dl, %bl
	setge	%dl
	andl	%edi, %edx
	testb	%dl, %dl
	je	.L189
	subl	$12, %esp
	pushl	%eax
	call	__asan_report_load4
.L189:
	movl	(%ecx), %eax
	movl	%eax, cgi_pattern
	jmp	.L166
.L188:
	movl	-28(%ebp), %eax
	leal	0(,%eax,4), %edx
	movl	12(%ebp), %eax
	leal	(%edx,%eax), %ecx
	movl	%ecx, %eax
	movl	%eax, %edx
	shrl	$3, %edx
	addl	$536870912, %edx
	movzbl	(%edx), %edx
	testb	%dl, %dl
	setne	%bl
	movl	%ebx, %edi
	movl	%eax, %esi
	andl	$7, %esi
	addl	$3, %esi
	movl	%esi, %ebx
	cmpb	%dl, %bl
	setge	%dl
	andl	%edi, %edx
	testb	%dl, %dl
	je	.L190
	subl	$12, %esp
	pushl	%eax
	call	__asan_report_load4
.L190:
	movl	(%ecx), %eax
	subl	$8, %esp
	pushl	$.LC61
	pushl	%eax
	call	strcmp
	addl	$16, %esp
	testl	%eax, %eax
	jne	.L191
	movl	-28(%ebp), %eax
	addl	$1, %eax
	cmpl	8(%ebp), %eax
	jge	.L191
	addl	$1, -28(%ebp)
	movl	-28(%ebp), %eax
	leal	0(,%eax,4), %edx
	movl	12(%ebp), %eax
	leal	(%edx,%eax), %ecx
	movl	%ecx, %eax
	movl	%eax, %edx
	shrl	$3, %edx
	addl	$536870912, %edx
	movzbl	(%edx), %edx
	testb	%dl, %dl
	setne	%bl
	movl	%ebx, %edi
	movl	%eax, %esi
	andl	$7, %esi
	addl	$3, %esi
	movl	%esi, %ebx
	cmpb	%dl, %bl
	setge	%dl
	andl	%edi, %edx
	testb	%dl, %dl
	je	.L192
	subl	$12, %esp
	pushl	%eax
	call	__asan_report_load4
.L192:
	movl	(%ecx), %eax
	movl	%eax, throttlefile
	jmp	.L166
.L191:
	movl	-28(%ebp), %eax
	leal	0(,%eax,4), %edx
	movl	12(%ebp), %eax
	leal	(%edx,%eax), %ecx
	movl	%ecx, %eax
	movl	%eax, %edx
	shrl	$3, %edx
	addl	$536870912, %edx
	movzbl	(%edx), %edx
	testb	%dl, %dl
	setne	%bl
	movl	%ebx, %edi
	movl	%eax, %esi
	andl	$7, %esi
	addl	$3, %esi
	movl	%esi, %ebx
	cmpb	%dl, %bl
	setge	%dl
	andl	%edi, %edx
	testb	%dl, %dl
	je	.L193
	subl	$12, %esp
	pushl	%eax
	call	__asan_report_load4
.L193:
	movl	(%ecx), %eax
	subl	$8, %esp
	pushl	$.LC62
	pushl	%eax
	call	strcmp
	addl	$16, %esp
	testl	%eax, %eax
	jne	.L194
	movl	-28(%ebp), %eax
	addl	$1, %eax
	cmpl	8(%ebp), %eax
	jge	.L194
	addl	$1, -28(%ebp)
	movl	-28(%ebp), %eax
	leal	0(,%eax,4), %edx
	movl	12(%ebp), %eax
	leal	(%edx,%eax), %ecx
	movl	%ecx, %eax
	movl	%eax, %edx
	shrl	$3, %edx
	addl	$536870912, %edx
	movzbl	(%edx), %edx
	testb	%dl, %dl
	setne	%bl
	movl	%ebx, %edi
	movl	%eax, %esi
	andl	$7, %esi
	addl	$3, %esi
	movl	%esi, %ebx
	cmpb	%dl, %bl
	setge	%dl
	andl	%edi, %edx
	testb	%dl, %dl
	je	.L195
	subl	$12, %esp
	pushl	%eax
	call	__asan_report_load4
.L195:
	movl	(%ecx), %eax
	movl	%eax, hostname
	jmp	.L166
.L194:
	movl	-28(%ebp), %eax
	leal	0(,%eax,4), %edx
	movl	12(%ebp), %eax
	leal	(%edx,%eax), %ecx
	movl	%ecx, %eax
	movl	%eax, %edx
	shrl	$3, %edx
	addl	$536870912, %edx
	movzbl	(%edx), %edx
	testb	%dl, %dl
	setne	%bl
	movl	%ebx, %edi
	movl	%eax, %esi
	andl	$7, %esi
	addl	$3, %esi
	movl	%esi, %ebx
	cmpb	%dl, %bl
	setge	%dl
	andl	%edi, %edx
	testb	%dl, %dl
	je	.L196
	subl	$12, %esp
	pushl	%eax
	call	__asan_report_load4
.L196:
	movl	(%ecx), %eax
	subl	$8, %esp
	pushl	$.LC63
	pushl	%eax
	call	strcmp
	addl	$16, %esp
	testl	%eax, %eax
	jne	.L197
	movl	-28(%ebp), %eax
	addl	$1, %eax
	cmpl	8(%ebp), %eax
	jge	.L197
	addl	$1, -28(%ebp)
	movl	-28(%ebp), %eax
	leal	0(,%eax,4), %edx
	movl	12(%ebp), %eax
	leal	(%edx,%eax), %ecx
	movl	%ecx, %eax
	movl	%eax, %edx
	shrl	$3, %edx
	addl	$536870912, %edx
	movzbl	(%edx), %edx
	testb	%dl, %dl
	setne	%bl
	movl	%ebx, %edi
	movl	%eax, %esi
	andl	$7, %esi
	addl	$3, %esi
	movl	%esi, %ebx
	cmpb	%dl, %bl
	setge	%dl
	andl	%edi, %edx
	testb	%dl, %dl
	je	.L198
	subl	$12, %esp
	pushl	%eax
	call	__asan_report_load4
.L198:
	movl	(%ecx), %eax
	movl	%eax, logfile
	jmp	.L166
.L197:
	movl	-28(%ebp), %eax
	leal	0(,%eax,4), %edx
	movl	12(%ebp), %eax
	leal	(%edx,%eax), %ecx
	movl	%ecx, %eax
	movl	%eax, %edx
	shrl	$3, %edx
	addl	$536870912, %edx
	movzbl	(%edx), %edx
	testb	%dl, %dl
	setne	%bl
	movl	%ebx, %edi
	movl	%eax, %esi
	andl	$7, %esi
	addl	$3, %esi
	movl	%esi, %ebx
	cmpb	%dl, %bl
	setge	%dl
	andl	%edi, %edx
	testb	%dl, %dl
	je	.L199
	subl	$12, %esp
	pushl	%eax
	call	__asan_report_load4
.L199:
	movl	(%ecx), %eax
	subl	$8, %esp
	pushl	$.LC64
	pushl	%eax
	call	strcmp
	addl	$16, %esp
	testl	%eax, %eax
	jne	.L200
	movl	$1, do_vhost
	jmp	.L166
.L200:
	movl	-28(%ebp), %eax
	leal	0(,%eax,4), %edx
	movl	12(%ebp), %eax
	leal	(%edx,%eax), %ecx
	movl	%ecx, %eax
	movl	%eax, %edx
	shrl	$3, %edx
	addl	$536870912, %edx
	movzbl	(%edx), %edx
	testb	%dl, %dl
	setne	%bl
	movl	%ebx, %edi
	movl	%eax, %esi
	andl	$7, %esi
	addl	$3, %esi
	movl	%esi, %ebx
	cmpb	%dl, %bl
	setge	%dl
	andl	%edi, %edx
	testb	%dl, %dl
	je	.L201
	subl	$12, %esp
	pushl	%eax
	call	__asan_report_load4
.L201:
	movl	(%ecx), %eax
	subl	$8, %esp
	pushl	$.LC65
	pushl	%eax
	call	strcmp
	addl	$16, %esp
	testl	%eax, %eax
	jne	.L202
	movl	$0, do_vhost
	jmp	.L166
.L202:
	movl	-28(%ebp), %eax
	leal	0(,%eax,4), %edx
	movl	12(%ebp), %eax
	leal	(%edx,%eax), %ecx
	movl	%ecx, %eax
	movl	%eax, %edx
	shrl	$3, %edx
	addl	$536870912, %edx
	movzbl	(%edx), %edx
	testb	%dl, %dl
	setne	%bl
	movl	%ebx, %edi
	movl	%eax, %esi
	andl	$7, %esi
	addl	$3, %esi
	movl	%esi, %ebx
	cmpb	%dl, %bl
	setge	%dl
	andl	%edi, %edx
	testb	%dl, %dl
	je	.L203
	subl	$12, %esp
	pushl	%eax
	call	__asan_report_load4
.L203:
	movl	(%ecx), %eax
	subl	$8, %esp
	pushl	$.LC66
	pushl	%eax
	call	strcmp
	addl	$16, %esp
	testl	%eax, %eax
	jne	.L204
	movl	$1, do_global_passwd
	jmp	.L166
.L204:
	movl	-28(%ebp), %eax
	leal	0(,%eax,4), %edx
	movl	12(%ebp), %eax
	leal	(%edx,%eax), %ecx
	movl	%ecx, %eax
	movl	%eax, %edx
	shrl	$3, %edx
	addl	$536870912, %edx
	movzbl	(%edx), %edx
	testb	%dl, %dl
	setne	%bl
	movl	%ebx, %edi
	movl	%eax, %esi
	andl	$7, %esi
	addl	$3, %esi
	movl	%esi, %ebx
	cmpb	%dl, %bl
	setge	%dl
	andl	%edi, %edx
	testb	%dl, %dl
	je	.L205
	subl	$12, %esp
	pushl	%eax
	call	__asan_report_load4
.L205:
	movl	(%ecx), %eax
	subl	$8, %esp
	pushl	$.LC67
	pushl	%eax
	call	strcmp
	addl	$16, %esp
	testl	%eax, %eax
	jne	.L206
	movl	$0, do_global_passwd
	jmp	.L166
.L206:
	movl	-28(%ebp), %eax
	leal	0(,%eax,4), %edx
	movl	12(%ebp), %eax
	leal	(%edx,%eax), %ecx
	movl	%ecx, %eax
	movl	%eax, %edx
	shrl	$3, %edx
	addl	$536870912, %edx
	movzbl	(%edx), %edx
	testb	%dl, %dl
	setne	%bl
	movl	%ebx, %edi
	movl	%eax, %esi
	andl	$7, %esi
	addl	$3, %esi
	movl	%esi, %ebx
	cmpb	%dl, %bl
	setge	%dl
	andl	%edi, %edx
	testb	%dl, %dl
	je	.L207
	subl	$12, %esp
	pushl	%eax
	call	__asan_report_load4
.L207:
	movl	(%ecx), %eax
	subl	$8, %esp
	pushl	$.LC68
	pushl	%eax
	call	strcmp
	addl	$16, %esp
	testl	%eax, %eax
	jne	.L208
	movl	-28(%ebp), %eax
	addl	$1, %eax
	cmpl	8(%ebp), %eax
	jge	.L208
	addl	$1, -28(%ebp)
	movl	-28(%ebp), %eax
	leal	0(,%eax,4), %edx
	movl	12(%ebp), %eax
	leal	(%edx,%eax), %ecx
	movl	%ecx, %eax
	movl	%eax, %edx
	shrl	$3, %edx
	addl	$536870912, %edx
	movzbl	(%edx), %edx
	testb	%dl, %dl
	setne	%bl
	movl	%ebx, %edi
	movl	%eax, %esi
	andl	$7, %esi
	addl	$3, %esi
	movl	%esi, %ebx
	cmpb	%dl, %bl
	setge	%dl
	andl	%edi, %edx
	testb	%dl, %dl
	je	.L209
	subl	$12, %esp
	pushl	%eax
	call	__asan_report_load4
.L209:
	movl	(%ecx), %eax
	movl	%eax, pidfile
	jmp	.L166
.L208:
	movl	-28(%ebp), %eax
	leal	0(,%eax,4), %edx
	movl	12(%ebp), %eax
	leal	(%edx,%eax), %ecx
	movl	%ecx, %eax
	movl	%eax, %edx
	shrl	$3, %edx
	addl	$536870912, %edx
	movzbl	(%edx), %edx
	testb	%dl, %dl
	setne	%bl
	movl	%ebx, %edi
	movl	%eax, %esi
	andl	$7, %esi
	addl	$3, %esi
	movl	%esi, %ebx
	cmpb	%dl, %bl
	setge	%dl
	andl	%edi, %edx
	testb	%dl, %dl
	je	.L210
	subl	$12, %esp
	pushl	%eax
	call	__asan_report_load4
.L210:
	movl	(%ecx), %eax
	subl	$8, %esp
	pushl	$.LC69
	pushl	%eax
	call	strcmp
	addl	$16, %esp
	testl	%eax, %eax
	jne	.L211
	movl	-28(%ebp), %eax
	addl	$1, %eax
	cmpl	8(%ebp), %eax
	jge	.L211
	addl	$1, -28(%ebp)
	movl	-28(%ebp), %eax
	leal	0(,%eax,4), %edx
	movl	12(%ebp), %eax
	leal	(%edx,%eax), %ecx
	movl	%ecx, %eax
	movl	%eax, %edx
	shrl	$3, %edx
	addl	$536870912, %edx
	movzbl	(%edx), %edx
	testb	%dl, %dl
	setne	%bl
	movl	%ebx, %edi
	movl	%eax, %esi
	andl	$7, %esi
	addl	$3, %esi
	movl	%esi, %ebx
	cmpb	%dl, %bl
	setge	%dl
	andl	%edi, %edx
	testb	%dl, %dl
	je	.L212
	subl	$12, %esp
	pushl	%eax
	call	__asan_report_load4
.L212:
	movl	(%ecx), %eax
	movl	%eax, charset
	jmp	.L166
.L211:
	movl	-28(%ebp), %eax
	leal	0(,%eax,4), %edx
	movl	12(%ebp), %eax
	leal	(%edx,%eax), %ecx
	movl	%ecx, %eax
	movl	%eax, %edx
	shrl	$3, %edx
	addl	$536870912, %edx
	movzbl	(%edx), %edx
	testb	%dl, %dl
	setne	%bl
	movl	%ebx, %edi
	movl	%eax, %esi
	andl	$7, %esi
	addl	$3, %esi
	movl	%esi, %ebx
	cmpb	%dl, %bl
	setge	%dl
	andl	%edi, %edx
	testb	%dl, %dl
	je	.L213
	subl	$12, %esp
	pushl	%eax
	call	__asan_report_load4
.L213:
	movl	(%ecx), %eax
	subl	$8, %esp
	pushl	$.LC70
	pushl	%eax
	call	strcmp
	addl	$16, %esp
	testl	%eax, %eax
	jne	.L214
	movl	-28(%ebp), %eax
	addl	$1, %eax
	cmpl	8(%ebp), %eax
	jge	.L214
	addl	$1, -28(%ebp)
	movl	-28(%ebp), %eax
	leal	0(,%eax,4), %edx
	movl	12(%ebp), %eax
	leal	(%edx,%eax), %ecx
	movl	%ecx, %eax
	movl	%eax, %edx
	shrl	$3, %edx
	addl	$536870912, %edx
	movzbl	(%edx), %edx
	testb	%dl, %dl
	setne	%bl
	movl	%ebx, %edi
	movl	%eax, %esi
	andl	$7, %esi
	addl	$3, %esi
	movl	%esi, %ebx
	cmpb	%dl, %bl
	setge	%dl
	andl	%edi, %edx
	testb	%dl, %dl
	je	.L215
	subl	$12, %esp
	pushl	%eax
	call	__asan_report_load4
.L215:
	movl	(%ecx), %eax
	movl	%eax, p3p
	jmp	.L166
.L214:
	movl	-28(%ebp), %eax
	leal	0(,%eax,4), %edx
	movl	12(%ebp), %eax
	leal	(%edx,%eax), %ecx
	movl	%ecx, %eax
	movl	%eax, %edx
	shrl	$3, %edx
	addl	$536870912, %edx
	movzbl	(%edx), %edx
	testb	%dl, %dl
	setne	%bl
	movl	%ebx, %edi
	movl	%eax, %esi
	andl	$7, %esi
	addl	$3, %esi
	movl	%esi, %ebx
	cmpb	%dl, %bl
	setge	%dl
	andl	%edi, %edx
	testb	%dl, %dl
	je	.L216
	subl	$12, %esp
	pushl	%eax
	call	__asan_report_load4
.L216:
	movl	(%ecx), %eax
	subl	$8, %esp
	pushl	$.LC71
	pushl	%eax
	call	strcmp
	addl	$16, %esp
	testl	%eax, %eax
	jne	.L217
	movl	-28(%ebp), %eax
	addl	$1, %eax
	cmpl	8(%ebp), %eax
	jge	.L217
	addl	$1, -28(%ebp)
	movl	-28(%ebp), %eax
	leal	0(,%eax,4), %edx
	movl	12(%ebp), %eax
	leal	(%edx,%eax), %ecx
	movl	%ecx, %eax
	movl	%eax, %edx
	shrl	$3, %edx
	addl	$536870912, %edx
	movzbl	(%edx), %edx
	testb	%dl, %dl
	setne	%bl
	movl	%ebx, %edi
	movl	%eax, %esi
	andl	$7, %esi
	addl	$3, %esi
	movl	%esi, %ebx
	cmpb	%dl, %bl
	setge	%dl
	andl	%edi, %edx
	testb	%dl, %dl
	je	.L218
	subl	$12, %esp
	pushl	%eax
	call	__asan_report_load4
.L218:
	movl	(%ecx), %eax
	subl	$12, %esp
	pushl	%eax
	call	atoi
	addl	$16, %esp
	movl	%eax, max_age
	jmp	.L166
.L217:
	movl	-28(%ebp), %eax
	leal	0(,%eax,4), %edx
	movl	12(%ebp), %eax
	leal	(%edx,%eax), %ecx
	movl	%ecx, %eax
	movl	%eax, %edx
	shrl	$3, %edx
	addl	$536870912, %edx
	movzbl	(%edx), %edx
	testb	%dl, %dl
	setne	%bl
	movl	%ebx, %edi
	movl	%eax, %esi
	andl	$7, %esi
	addl	$3, %esi
	movl	%esi, %ebx
	cmpb	%dl, %bl
	setge	%dl
	andl	%edi, %edx
	testb	%dl, %dl
	je	.L219
	subl	$12, %esp
	pushl	%eax
	call	__asan_report_load4
.L219:
	movl	(%ecx), %eax
	subl	$8, %esp
	pushl	$.LC72
	pushl	%eax
	call	strcmp
	addl	$16, %esp
	testl	%eax, %eax
	jne	.L220
	movl	$1, debug
	jmp	.L166
.L220:
	call	usage
.L166:
	addl	$1, -28(%ebp)
.L160:
	movl	-28(%ebp), %eax
	cmpl	8(%ebp), %eax
	jge	.L221
	movl	-28(%ebp), %eax
	leal	0(,%eax,4), %edx
	movl	12(%ebp), %eax
	leal	(%edx,%eax), %ecx
	movl	%ecx, %eax
	movl	%eax, %edx
	shrl	$3, %edx
	addl	$536870912, %edx
	movzbl	(%edx), %edx
	testb	%dl, %dl
	setne	%bl
	movl	%ebx, %edi
	movl	%eax, %esi
	andl	$7, %esi
	addl	$3, %esi
	movl	%esi, %ebx
	cmpb	%dl, %bl
	setge	%dl
	andl	%edi, %edx
	testb	%dl, %dl
	je	.L222
	subl	$12, %esp
	pushl	%eax
	call	__asan_report_load4
.L222:
	movl	(%ecx), %edx
	movl	%edx, %eax
	movl	%eax, %ecx
	shrl	$3, %ecx
	addl	$536870912, %ecx
	movzbl	(%ecx), %ecx
	testb	%cl, %cl
	setne	%bl
	movl	%ebx, %edi
	movl	%eax, %esi
	andl	$7, %esi
	movl	%esi, %ebx
	cmpb	%cl, %bl
	setge	%cl
	andl	%edi, %ecx
	testb	%cl, %cl
	je	.L223
	subl	$12, %esp
	pushl	%eax
	call	__asan_report_load1
.L223:
	movzbl	(%edx), %eax
	cmpb	$45, %al
	je	.L224
.L221:
	movl	-28(%ebp), %eax
	cmpl	8(%ebp), %eax
	je	.L159
	call	usage
.L159:
	leal	-12(%ebp), %esp
	popl	%ebx
	.cfi_restore 3
	popl	%esi
	.cfi_restore 6
	popl	%edi
	.cfi_restore 7
	popl	%ebp
	.cfi_restore 5
	.cfi_def_cfa 4, 4
	ret
	.cfi_endproc
.LFE8:
	.size	parse_args, .-parse_args
	.section	.rodata
	.align 32
.LC73:
	.string	"usage:  %s [-C configfile] [-p port] [-d dir] [-r|-nor] [-dd data_dir] [-s|-nos] [-v|-nov] [-g|-nog] [-u user] [-c cgipat] [-t throttles] [-h host] [-l logfile] [-i pidfile] [-T charset] [-P P3P] [-M maxage] [-V] [-D]\n"
	.zero	37
	.text
	.type	usage, @function
usage:
.LASANPC9:
.LFB9:
	.cfi_startproc
	pushl	%ebp
	.cfi_def_cfa_offset 8
	.cfi_offset 5, -8
	movl	%esp, %ebp
	.cfi_def_cfa_register 5
	pushl	%edi
	pushl	%esi
	pushl	%ebx
	subl	$12, %esp
	.cfi_offset 7, -12
	.cfi_offset 6, -16
	.cfi_offset 3, -20
	movl	argv0, %edi
	movl	$stderr, %eax
	movl	%eax, %edx
	shrl	$3, %edx
	addl	$536870912, %edx
	movzbl	(%edx), %edx
	testb	%dl, %dl
	setne	%bl
	movl	%eax, %esi
	andl	$7, %esi
	addl	$3, %esi
	movl	%esi, %ecx
	cmpb	%dl, %cl
	setge	%dl
	andl	%ebx, %edx
	testb	%dl, %dl
	je	.L227
	subl	$12, %esp
	pushl	%eax
	call	__asan_report_load4
.L227:
	movl	stderr, %eax
	subl	$4, %esp
	pushl	%edi
	pushl	$.LC73
	pushl	%eax
	call	fprintf
	addl	$16, %esp
	call	__asan_handle_no_return
	subl	$12, %esp
	pushl	$1
	call	exit
	.cfi_endproc
.LFE9:
	.size	usage, .-usage
	.globl	__asan_stack_malloc_8
	.section	.rodata
.LC74:
	.string	"1 32 10000 4 line "
	.globl	__asan_stack_free_8
	.align 32
.LC75:
	.string	"r"
	.zero	62
	.align 32
.LC76:
	.string	" \t\n\r"
	.zero	59
	.align 32
.LC77:
	.string	"debug"
	.zero	58
	.align 32
.LC78:
	.string	"port"
	.zero	59
	.align 32
.LC79:
	.string	"dir"
	.zero	60
	.align 32
.LC80:
	.string	"nochroot"
	.zero	55
	.align 32
.LC81:
	.string	"data_dir"
	.zero	55
	.align 32
.LC82:
	.string	"symlink"
	.zero	56
	.align 32
.LC83:
	.string	"nosymlink"
	.zero	54
	.align 32
.LC84:
	.string	"symlinks"
	.zero	55
	.align 32
.LC85:
	.string	"nosymlinks"
	.zero	53
	.align 32
.LC86:
	.string	"user"
	.zero	59
	.align 32
.LC87:
	.string	"cgipat"
	.zero	57
	.align 32
.LC88:
	.string	"cgilimit"
	.zero	55
	.align 32
.LC89:
	.string	"urlpat"
	.zero	57
	.align 32
.LC90:
	.string	"noemptyreferers"
	.zero	48
	.align 32
.LC91:
	.string	"localpat"
	.zero	55
	.align 32
.LC92:
	.string	"throttles"
	.zero	54
	.align 32
.LC93:
	.string	"host"
	.zero	59
	.align 32
.LC94:
	.string	"logfile"
	.zero	56
	.align 32
.LC95:
	.string	"vhost"
	.zero	58
	.align 32
.LC96:
	.string	"novhost"
	.zero	56
	.align 32
.LC97:
	.string	"globalpasswd"
	.zero	51
	.align 32
.LC98:
	.string	"noglobalpasswd"
	.zero	49
	.align 32
.LC99:
	.string	"pidfile"
	.zero	56
	.align 32
.LC100:
	.string	"charset"
	.zero	56
	.align 32
.LC101:
	.string	"p3p"
	.zero	60
	.align 32
.LC102:
	.string	"max_age"
	.zero	56
	.align 32
.LC103:
	.string	"%s: unknown config option '%s'\n"
	.zero	32
	.text
	.type	read_config, @function
read_config:
.LASANPC10:
.LFB10:
	.cfi_startproc
	pushl	%ebp
	.cfi_def_cfa_offset 8
	.cfi_offset 5, -8
	movl	%esp, %ebp
	.cfi_def_cfa_register 5
	pushl	%edi
	pushl	%esi
	pushl	%ebx
	subl	$10140, %esp
	.cfi_offset 7, -12
	.cfi_offset 6, -16
	.cfi_offset 3, -20
	movl	8(%ebp), %eax
	movl	%eax, -10140(%ebp)
	leal	-10104(%ebp), %ebx
	movl	%ebx, -10148(%ebp)
	cmpl	$0, __asan_option_detect_stack_use_after_return
	je	.L228
	subl	$8, %esp
	pushl	%ebx
	pushl	$10076
	call	__asan_stack_malloc_8
	addl	$16, %esp
	movl	%eax, %ebx
.L228:
	leal	10080(%ebx), %eax
	movl	%eax, -10144(%ebp)
	movl	$1102416563, (%ebx)
	movl	$.LC74, 4(%ebx)
	movl	$.LASANPC10, 8(%ebx)
	movl	%ebx, %eax
	shrl	$3, %eax
	movl	%eax, -10152(%ebp)
	movl	$-235802127, 536870912(%eax)
	movl	$-185335808, 536872164(%eax)
	movl	%gs:20, %eax
	movl	%eax, -28(%ebp)
	xorl	%eax, %eax
	subl	$8, %esp
	pushl	$.LC75
	pushl	-10140(%ebp)
	call	fopen
	addl	$16, %esp
	movl	%eax, -10112(%ebp)
	cmpl	$0, -10112(%ebp)
	jne	.L232
	subl	$12, %esp
	pushl	-10140(%ebp)
	call	perror
	addl	$16, %esp
	call	__asan_handle_no_return
	subl	$12, %esp
	pushl	$1
	call	exit
.L232:
	jmp	.L233
.L274:
	subl	$8, %esp
	pushl	$35
	movl	-10144(%ebp), %eax
	subl	$10048, %eax
	pushl	%eax
	call	strchr
	addl	$16, %esp
	movl	%eax, -10124(%ebp)
	cmpl	$0, -10124(%ebp)
	je	.L234
	movl	-10124(%ebp), %edx
	movl	%edx, %eax
	shrl	$3, %eax
	addl	$536870912, %eax
	movzbl	(%eax), %ecx
	testb	%cl, %cl
	setne	%al
	movl	%eax, %esi
	movl	%edx, %eax
	andl	$7, %eax
	cmpb	%cl, %al
	setge	%al
	andl	%esi, %eax
	testb	%al, %al
	je	.L235
	subl	$12, %esp
	pushl	%edx
	call	__asan_report_store1
.L235:
	movl	-10124(%ebp), %eax
	movb	$0, (%eax)
.L234:
	movl	-10144(%ebp), %eax
	subl	$10048, %eax
	movl	%eax, -10124(%ebp)
	subl	$8, %esp
	pushl	$.LC76
	pushl	-10124(%ebp)
	call	strspn
	addl	$16, %esp
	addl	%eax, -10124(%ebp)
	jmp	.L236
.L273:
	subl	$8, %esp
	pushl	$.LC76
	pushl	-10124(%ebp)
	call	strcspn
	addl	$16, %esp
	movl	%eax, %edx
	movl	-10124(%ebp), %eax
	addl	%edx, %eax
	movl	%eax, -10120(%ebp)
	jmp	.L237
.L240:
	movl	-10120(%ebp), %ecx
	leal	1(%ecx), %eax
	movl	%eax, -10120(%ebp)
	movl	%ecx, %esi
	movl	%esi, %eax
	shrl	$3, %eax
	addl	$536870912, %eax
	movzbl	(%eax), %edx
	testb	%dl, %dl
	setne	%al
	movl	%eax, %edi
	movl	%esi, %eax
	andl	$7, %eax
	cmpb	%dl, %al
	setge	%al
	andl	%edi, %eax
	testb	%al, %al
	je	.L238
	subl	$12, %esp
	pushl	%esi
	call	__asan_report_store1
.L238:
	movb	$0, (%ecx)
.L237:
	movl	-10120(%ebp), %edx
	movl	%edx, %eax
	shrl	$3, %eax
	addl	$536870912, %eax
	movzbl	(%eax), %ecx
	testb	%cl, %cl
	setne	%al
	movl	%eax, %esi
	movl	%edx, %eax
	andl	$7, %eax
	cmpb	%cl, %al
	setge	%al
	andl	%esi, %eax
	testb	%al, %al
	je	.L239
	subl	$12, %esp
	pushl	%edx
	call	__asan_report_load1
.L239:
	movl	-10120(%ebp), %eax
	movzbl	(%eax), %eax
	cmpb	$32, %al
	je	.L240
	movl	-10120(%ebp), %eax
	movzbl	(%eax), %eax
	cmpb	$9, %al
	je	.L240
	movl	-10120(%ebp), %eax
	movzbl	(%eax), %eax
	cmpb	$10, %al
	je	.L240
	movl	-10120(%ebp), %eax
	movzbl	(%eax), %eax
	cmpb	$13, %al
	je	.L240
	movl	-10124(%ebp), %eax
	movl	%eax, -10108(%ebp)
	subl	$8, %esp
	pushl	$61
	pushl	-10108(%ebp)
	call	strchr
	addl	$16, %esp
	movl	%eax, -10116(%ebp)
	cmpl	$0, -10116(%ebp)
	je	.L241
	movl	-10116(%ebp), %ecx
	leal	1(%ecx), %eax
	movl	%eax, -10116(%ebp)
	movl	%ecx, %esi
	movl	%esi, %eax
	shrl	$3, %eax
	addl	$536870912, %eax
	movzbl	(%eax), %edx
	testb	%dl, %dl
	setne	%al
	movl	%eax, %edi
	movl	%esi, %eax
	andl	$7, %eax
	cmpb	%dl, %al
	setge	%al
	andl	%edi, %eax
	testb	%al, %al
	je	.L242
	subl	$12, %esp
	pushl	%esi
	call	__asan_report_store1
.L242:
	movb	$0, (%ecx)
.L241:
	subl	$8, %esp
	pushl	$.LC77
	pushl	-10108(%ebp)
	call	strcasecmp
	addl	$16, %esp
	testl	%eax, %eax
	jne	.L243
	subl	$8, %esp
	pushl	-10116(%ebp)
	pushl	-10108(%ebp)
	call	no_value_required
	addl	$16, %esp
	movl	$1, debug
	jmp	.L244
.L243:
	subl	$8, %esp
	pushl	$.LC78
	pushl	-10108(%ebp)
	call	strcasecmp
	addl	$16, %esp
	testl	%eax, %eax
	jne	.L245
	subl	$8, %esp
	pushl	-10116(%ebp)
	pushl	-10108(%ebp)
	call	value_required
	addl	$16, %esp
	subl	$12, %esp
	pushl	-10116(%ebp)
	call	atoi
	addl	$16, %esp
	movw	%ax, port
	jmp	.L244
.L245:
	subl	$8, %esp
	pushl	$.LC79
	pushl	-10108(%ebp)
	call	strcasecmp
	addl	$16, %esp
	testl	%eax, %eax
	jne	.L246
	subl	$8, %esp
	pushl	-10116(%ebp)
	pushl	-10108(%ebp)
	call	value_required
	addl	$16, %esp
	subl	$12, %esp
	pushl	-10116(%ebp)
	call	e_strdup
	addl	$16, %esp
	movl	%eax, dir
	jmp	.L244
.L246:
	subl	$8, %esp
	pushl	$.LC28
	pushl	-10108(%ebp)
	call	strcasecmp
	addl	$16, %esp
	testl	%eax, %eax
	jne	.L247
	subl	$8, %esp
	pushl	-10116(%ebp)
	pushl	-10108(%ebp)
	call	no_value_required
	addl	$16, %esp
	movl	$1, do_chroot
	movl	$1, no_symlink_check
	jmp	.L244
.L247:
	subl	$8, %esp
	pushl	$.LC80
	pushl	-10108(%ebp)
	call	strcasecmp
	addl	$16, %esp
	testl	%eax, %eax
	jne	.L248
	subl	$8, %esp
	pushl	-10116(%ebp)
	pushl	-10108(%ebp)
	call	no_value_required
	addl	$16, %esp
	movl	$0, do_chroot
	movl	$0, no_symlink_check
	jmp	.L244
.L248:
	subl	$8, %esp
	pushl	$.LC81
	pushl	-10108(%ebp)
	call	strcasecmp
	addl	$16, %esp
	testl	%eax, %eax
	jne	.L249
	subl	$8, %esp
	pushl	-10116(%ebp)
	pushl	-10108(%ebp)
	call	value_required
	addl	$16, %esp
	subl	$12, %esp
	pushl	-10116(%ebp)
	call	e_strdup
	addl	$16, %esp
	movl	%eax, data_dir
	jmp	.L244
.L249:
	subl	$8, %esp
	pushl	$.LC82
	pushl	-10108(%ebp)
	call	strcasecmp
	addl	$16, %esp
	testl	%eax, %eax
	jne	.L250
	subl	$8, %esp
	pushl	-10116(%ebp)
	pushl	-10108(%ebp)
	call	no_value_required
	addl	$16, %esp
	movl	$0, no_symlink_check
	jmp	.L244
.L250:
	subl	$8, %esp
	pushl	$.LC83
	pushl	-10108(%ebp)
	call	strcasecmp
	addl	$16, %esp
	testl	%eax, %eax
	jne	.L251
	subl	$8, %esp
	pushl	-10116(%ebp)
	pushl	-10108(%ebp)
	call	no_value_required
	addl	$16, %esp
	movl	$1, no_symlink_check
	jmp	.L244
.L251:
	subl	$8, %esp
	pushl	$.LC84
	pushl	-10108(%ebp)
	call	strcasecmp
	addl	$16, %esp
	testl	%eax, %eax
	jne	.L252
	subl	$8, %esp
	pushl	-10116(%ebp)
	pushl	-10108(%ebp)
	call	no_value_required
	addl	$16, %esp
	movl	$0, no_symlink_check
	jmp	.L244
.L252:
	subl	$8, %esp
	pushl	$.LC85
	pushl	-10108(%ebp)
	call	strcasecmp
	addl	$16, %esp
	testl	%eax, %eax
	jne	.L253
	subl	$8, %esp
	pushl	-10116(%ebp)
	pushl	-10108(%ebp)
	call	no_value_required
	addl	$16, %esp
	movl	$1, no_symlink_check
	jmp	.L244
.L253:
	subl	$8, %esp
	pushl	$.LC86
	pushl	-10108(%ebp)
	call	strcasecmp
	addl	$16, %esp
	testl	%eax, %eax
	jne	.L254
	subl	$8, %esp
	pushl	-10116(%ebp)
	pushl	-10108(%ebp)
	call	value_required
	addl	$16, %esp
	subl	$12, %esp
	pushl	-10116(%ebp)
	call	e_strdup
	addl	$16, %esp
	movl	%eax, user
	jmp	.L244
.L254:
	subl	$8, %esp
	pushl	$.LC87
	pushl	-10108(%ebp)
	call	strcasecmp
	addl	$16, %esp
	testl	%eax, %eax
	jne	.L255
	subl	$8, %esp
	pushl	-10116(%ebp)
	pushl	-10108(%ebp)
	call	value_required
	addl	$16, %esp
	subl	$12, %esp
	pushl	-10116(%ebp)
	call	e_strdup
	addl	$16, %esp
	movl	%eax, cgi_pattern
	jmp	.L244
.L255:
	subl	$8, %esp
	pushl	$.LC88
	pushl	-10108(%ebp)
	call	strcasecmp
	addl	$16, %esp
	testl	%eax, %eax
	jne	.L256
	subl	$8, %esp
	pushl	-10116(%ebp)
	pushl	-10108(%ebp)
	call	value_required
	addl	$16, %esp
	subl	$12, %esp
	pushl	-10116(%ebp)
	call	atoi
	addl	$16, %esp
	movl	%eax, cgi_limit
	jmp	.L244
.L256:
	subl	$8, %esp
	pushl	$.LC89
	pushl	-10108(%ebp)
	call	strcasecmp
	addl	$16, %esp
	testl	%eax, %eax
	jne	.L257
	subl	$8, %esp
	pushl	-10116(%ebp)
	pushl	-10108(%ebp)
	call	value_required
	addl	$16, %esp
	subl	$12, %esp
	pushl	-10116(%ebp)
	call	e_strdup
	addl	$16, %esp
	movl	%eax, url_pattern
	jmp	.L244
.L257:
	subl	$8, %esp
	pushl	$.LC90
	pushl	-10108(%ebp)
	call	strcasecmp
	addl	$16, %esp
	testl	%eax, %eax
	jne	.L258
	subl	$8, %esp
	pushl	-10116(%ebp)
	pushl	-10108(%ebp)
	call	no_value_required
	addl	$16, %esp
	movl	$1, no_empty_referers
	jmp	.L244
.L258:
	subl	$8, %esp
	pushl	$.LC91
	pushl	-10108(%ebp)
	call	strcasecmp
	addl	$16, %esp
	testl	%eax, %eax
	jne	.L259
	subl	$8, %esp
	pushl	-10116(%ebp)
	pushl	-10108(%ebp)
	call	value_required
	addl	$16, %esp
	subl	$12, %esp
	pushl	-10116(%ebp)
	call	e_strdup
	addl	$16, %esp
	movl	%eax, local_pattern
	jmp	.L244
.L259:
	subl	$8, %esp
	pushl	$.LC92
	pushl	-10108(%ebp)
	call	strcasecmp
	addl	$16, %esp
	testl	%eax, %eax
	jne	.L260
	subl	$8, %esp
	pushl	-10116(%ebp)
	pushl	-10108(%ebp)
	call	value_required
	addl	$16, %esp
	subl	$12, %esp
	pushl	-10116(%ebp)
	call	e_strdup
	addl	$16, %esp
	movl	%eax, throttlefile
	jmp	.L244
.L260:
	subl	$8, %esp
	pushl	$.LC93
	pushl	-10108(%ebp)
	call	strcasecmp
	addl	$16, %esp
	testl	%eax, %eax
	jne	.L261
	subl	$8, %esp
	pushl	-10116(%ebp)
	pushl	-10108(%ebp)
	call	value_required
	addl	$16, %esp
	subl	$12, %esp
	pushl	-10116(%ebp)
	call	e_strdup
	addl	$16, %esp
	movl	%eax, hostname
	jmp	.L244
.L261:
	subl	$8, %esp
	pushl	$.LC94
	pushl	-10108(%ebp)
	call	strcasecmp
	addl	$16, %esp
	testl	%eax, %eax
	jne	.L262
	subl	$8, %esp
	pushl	-10116(%ebp)
	pushl	-10108(%ebp)
	call	value_required
	addl	$16, %esp
	subl	$12, %esp
	pushl	-10116(%ebp)
	call	e_strdup
	addl	$16, %esp
	movl	%eax, logfile
	jmp	.L244
.L262:
	subl	$8, %esp
	pushl	$.LC95
	pushl	-10108(%ebp)
	call	strcasecmp
	addl	$16, %esp
	testl	%eax, %eax
	jne	.L263
	subl	$8, %esp
	pushl	-10116(%ebp)
	pushl	-10108(%ebp)
	call	no_value_required
	addl	$16, %esp
	movl	$1, do_vhost
	jmp	.L244
.L263:
	subl	$8, %esp
	pushl	$.LC96
	pushl	-10108(%ebp)
	call	strcasecmp
	addl	$16, %esp
	testl	%eax, %eax
	jne	.L264
	subl	$8, %esp
	pushl	-10116(%ebp)
	pushl	-10108(%ebp)
	call	no_value_required
	addl	$16, %esp
	movl	$0, do_vhost
	jmp	.L244
.L264:
	subl	$8, %esp
	pushl	$.LC97
	pushl	-10108(%ebp)
	call	strcasecmp
	addl	$16, %esp
	testl	%eax, %eax
	jne	.L265
	subl	$8, %esp
	pushl	-10116(%ebp)
	pushl	-10108(%ebp)
	call	no_value_required
	addl	$16, %esp
	movl	$1, do_global_passwd
	jmp	.L244
.L265:
	subl	$8, %esp
	pushl	$.LC98
	pushl	-10108(%ebp)
	call	strcasecmp
	addl	$16, %esp
	testl	%eax, %eax
	jne	.L266
	subl	$8, %esp
	pushl	-10116(%ebp)
	pushl	-10108(%ebp)
	call	no_value_required
	addl	$16, %esp
	movl	$0, do_global_passwd
	jmp	.L244
.L266:
	subl	$8, %esp
	pushl	$.LC99
	pushl	-10108(%ebp)
	call	strcasecmp
	addl	$16, %esp
	testl	%eax, %eax
	jne	.L267
	subl	$8, %esp
	pushl	-10116(%ebp)
	pushl	-10108(%ebp)
	call	value_required
	addl	$16, %esp
	subl	$12, %esp
	pushl	-10116(%ebp)
	call	e_strdup
	addl	$16, %esp
	movl	%eax, pidfile
	jmp	.L244
.L267:
	subl	$8, %esp
	pushl	$.LC100
	pushl	-10108(%ebp)
	call	strcasecmp
	addl	$16, %esp
	testl	%eax, %eax
	jne	.L268
	subl	$8, %esp
	pushl	-10116(%ebp)
	pushl	-10108(%ebp)
	call	value_required
	addl	$16, %esp
	subl	$12, %esp
	pushl	-10116(%ebp)
	call	e_strdup
	addl	$16, %esp
	movl	%eax, charset
	jmp	.L244
.L268:
	subl	$8, %esp
	pushl	$.LC101
	pushl	-10108(%ebp)
	call	strcasecmp
	addl	$16, %esp
	testl	%eax, %eax
	jne	.L269
	subl	$8, %esp
	pushl	-10116(%ebp)
	pushl	-10108(%ebp)
	call	value_required
	addl	$16, %esp
	subl	$12, %esp
	pushl	-10116(%ebp)
	call	e_strdup
	addl	$16, %esp
	movl	%eax, p3p
	jmp	.L244
.L269:
	subl	$8, %esp
	pushl	$.LC102
	pushl	-10108(%ebp)
	call	strcasecmp
	addl	$16, %esp
	testl	%eax, %eax
	jne	.L270
	subl	$8, %esp
	pushl	-10116(%ebp)
	pushl	-10108(%ebp)
	call	value_required
	addl	$16, %esp
	subl	$12, %esp
	pushl	-10116(%ebp)
	call	atoi
	addl	$16, %esp
	movl	%eax, max_age
	jmp	.L244
.L270:
	movl	argv0, %edi
	movl	$stderr, %eax
	movl	%eax, %edx
	shrl	$3, %edx
	addl	$536870912, %edx
	movzbl	(%edx), %edx
	testb	%dl, %dl
	setne	%bl
	movl	%eax, %esi
	andl	$7, %esi
	addl	$3, %esi
	movl	%esi, %ecx
	cmpb	%dl, %cl
	setge	%dl
	andl	%ebx, %edx
	testb	%dl, %dl
	je	.L271
	subl	$12, %esp
	pushl	%eax
	call	__asan_report_load4
.L271:
	movl	stderr, %eax
	pushl	-10108(%ebp)
	pushl	%edi
	pushl	$.LC103
	pushl	%eax
	call	fprintf
	addl	$16, %esp
	call	__asan_handle_no_return
	subl	$12, %esp
	pushl	$1
	call	exit
.L244:
	movl	-10120(%ebp), %eax
	movl	%eax, -10124(%ebp)
	subl	$8, %esp
	pushl	$.LC76
	pushl	-10124(%ebp)
	call	strspn
	addl	$16, %esp
	addl	%eax, -10124(%ebp)
.L236:
	movl	-10124(%ebp), %edx
	movl	%edx, %eax
	shrl	$3, %eax
	addl	$536870912, %eax
	movzbl	(%eax), %ecx
	testb	%cl, %cl
	setne	%al
	movl	%eax, %esi
	movl	%edx, %eax
	andl	$7, %eax
	cmpb	%cl, %al
	setge	%al
	andl	%esi, %eax
	testb	%al, %al
	je	.L272
	subl	$12, %esp
	pushl	%edx
	call	__asan_report_load1
.L272:
	movl	-10124(%ebp), %eax
	movzbl	(%eax), %eax
	testb	%al, %al
	jne	.L273
.L233:
	subl	$4, %esp
	pushl	-10112(%ebp)
	pushl	$10000
	movl	-10144(%ebp), %eax
	subl	$10048, %eax
	pushl	%eax
	call	fgets
	addl	$16, %esp
	testl	%eax, %eax
	jne	.L274
	subl	$12, %esp
	pushl	-10112(%ebp)
	call	fclose
	addl	$16, %esp
	cmpl	%ebx, -10148(%ebp)
	je	.L229
	movl	$1172321806, (%ebx)
	subl	$4, %esp
	pushl	-10148(%ebp)
	pushl	$10076
	pushl	%ebx
	call	__asan_stack_free_8
	addl	$16, %esp
	jmp	.L230
.L229:
	movl	-10152(%ebp), %eax
	movl	$0, 536870912(%eax)
	movl	$0, 536872164(%eax)
.L230:
	movl	-28(%ebp), %eax
	xorl	%gs:20, %eax
	je	.L275
	call	__stack_chk_fail
.L275:
	leal	-12(%ebp), %esp
	popl	%ebx
	.cfi_restore 3
	popl	%esi
	.cfi_restore 6
	popl	%edi
	.cfi_restore 7
	popl	%ebp
	.cfi_restore 5
	.cfi_def_cfa 4, 4
	ret
	.cfi_endproc
.LFE10:
	.size	read_config, .-read_config
	.section	.rodata
	.align 32
.LC104:
	.string	"%s: value required for %s option\n"
	.zero	62
	.text
	.type	value_required, @function
value_required:
.LASANPC11:
.LFB11:
	.cfi_startproc
	pushl	%ebp
	.cfi_def_cfa_offset 8
	.cfi_offset 5, -8
	movl	%esp, %ebp
	.cfi_def_cfa_register 5
	pushl	%edi
	pushl	%esi
	pushl	%ebx
	subl	$12, %esp
	.cfi_offset 7, -12
	.cfi_offset 6, -16
	.cfi_offset 3, -20
	cmpl	$0, 12(%ebp)
	jne	.L276
	movl	argv0, %edi
	movl	$stderr, %eax
	movl	%eax, %edx
	shrl	$3, %edx
	addl	$536870912, %edx
	movzbl	(%edx), %edx
	testb	%dl, %dl
	setne	%bl
	movl	%eax, %esi
	andl	$7, %esi
	addl	$3, %esi
	movl	%esi, %ecx
	cmpb	%dl, %cl
	setge	%dl
	andl	%ebx, %edx
	testb	%dl, %dl
	je	.L278
	subl	$12, %esp
	pushl	%eax
	call	__asan_report_load4
.L278:
	movl	stderr, %eax
	pushl	8(%ebp)
	pushl	%edi
	pushl	$.LC104
	pushl	%eax
	call	fprintf
	addl	$16, %esp
	call	__asan_handle_no_return
	subl	$12, %esp
	pushl	$1
	call	exit
.L276:
	leal	-12(%ebp), %esp
	popl	%ebx
	.cfi_restore 3
	popl	%esi
	.cfi_restore 6
	popl	%edi
	.cfi_restore 7
	popl	%ebp
	.cfi_restore 5
	.cfi_def_cfa 4, 4
	ret
	.cfi_endproc
.LFE11:
	.size	value_required, .-value_required
	.section	.rodata
	.align 32
.LC105:
	.string	"%s: no value required for %s option\n"
	.zero	59
	.text
	.type	no_value_required, @function
no_value_required:
.LASANPC12:
.LFB12:
	.cfi_startproc
	pushl	%ebp
	.cfi_def_cfa_offset 8
	.cfi_offset 5, -8
	movl	%esp, %ebp
	.cfi_def_cfa_register 5
	pushl	%edi
	pushl	%esi
	pushl	%ebx
	subl	$12, %esp
	.cfi_offset 7, -12
	.cfi_offset 6, -16
	.cfi_offset 3, -20
	cmpl	$0, 12(%ebp)
	je	.L279
	movl	argv0, %edi
	movl	$stderr, %eax
	movl	%eax, %edx
	shrl	$3, %edx
	addl	$536870912, %edx
	movzbl	(%edx), %edx
	testb	%dl, %dl
	setne	%bl
	movl	%eax, %esi
	andl	$7, %esi
	addl	$3, %esi
	movl	%esi, %ecx
	cmpb	%dl, %cl
	setge	%dl
	andl	%ebx, %edx
	testb	%dl, %dl
	je	.L281
	subl	$12, %esp
	pushl	%eax
	call	__asan_report_load4
.L281:
	movl	stderr, %eax
	pushl	8(%ebp)
	pushl	%edi
	pushl	$.LC105
	pushl	%eax
	call	fprintf
	addl	$16, %esp
	call	__asan_handle_no_return
	subl	$12, %esp
	pushl	$1
	call	exit
.L279:
	leal	-12(%ebp), %esp
	popl	%ebx
	.cfi_restore 3
	popl	%esi
	.cfi_restore 6
	popl	%edi
	.cfi_restore 7
	popl	%ebp
	.cfi_restore 5
	.cfi_def_cfa 4, 4
	ret
	.cfi_endproc
.LFE12:
	.size	no_value_required, .-no_value_required
	.section	.rodata
	.align 32
.LC106:
	.string	"out of memory copying a string"
	.zero	33
	.align 32
.LC107:
	.string	"%s: out of memory copying a string\n"
	.zero	60
	.text
	.type	e_strdup, @function
e_strdup:
.LASANPC13:
.LFB13:
	.cfi_startproc
	pushl	%ebp
	.cfi_def_cfa_offset 8
	.cfi_offset 5, -8
	movl	%esp, %ebp
	.cfi_def_cfa_register 5
	pushl	%edi
	pushl	%esi
	pushl	%ebx
	subl	$28, %esp
	.cfi_offset 7, -12
	.cfi_offset 6, -16
	.cfi_offset 3, -20
	subl	$12, %esp
	pushl	8(%ebp)
	call	strdup
	addl	$16, %esp
	movl	%eax, -28(%ebp)
	cmpl	$0, -28(%ebp)
	jne	.L283
	subl	$8, %esp
	pushl	$.LC106
	pushl	$2
	call	syslog
	addl	$16, %esp
	movl	argv0, %edi
	movl	$stderr, %eax
	movl	%eax, %edx
	shrl	$3, %edx
	addl	$536870912, %edx
	movzbl	(%edx), %edx
	testb	%dl, %dl
	setne	%bl
	movl	%eax, %esi
	andl	$7, %esi
	addl	$3, %esi
	movl	%esi, %ecx
	cmpb	%dl, %cl
	setge	%dl
	andl	%ebx, %edx
	testb	%dl, %dl
	je	.L284
	subl	$12, %esp
	pushl	%eax
	call	__asan_report_load4
.L284:
	movl	stderr, %eax
	subl	$4, %esp
	pushl	%edi
	pushl	$.LC107
	pushl	%eax
	call	fprintf
	addl	$16, %esp
	call	__asan_handle_no_return
	subl	$12, %esp
	pushl	$1
	call	exit
.L283:
	movl	-28(%ebp), %eax
	leal	-12(%ebp), %esp
	popl	%ebx
	.cfi_restore 3
	popl	%esi
	.cfi_restore 6
	popl	%edi
	.cfi_restore 7
	popl	%ebp
	.cfi_restore 5
	.cfi_def_cfa 4, 4
	ret
	.cfi_endproc
.LFE13:
	.size	e_strdup, .-e_strdup
	.globl	__asan_stack_malloc_2
	.section	.rodata
	.align 4
.LC108:
	.string	"3 32 4 2 ai 96 32 5 hints 160 10 7 portstr "
	.align 32
.LC109:
	.string	"%d"
	.zero	61
	.align 32
.LC110:
	.string	"getaddrinfo %.80s - %.80s"
	.zero	38
	.align 32
.LC111:
	.string	"%s: getaddrinfo %s - %s\n"
	.zero	39
	.align 32
.LC112:
	.string	"%.80s - sockaddr too small (%lu < %lu)"
	.zero	57
	.text
	.type	lookup_hostname, @function
lookup_hostname:
.LASANPC14:
.LFB14:
	.cfi_startproc
	pushl	%ebp
	.cfi_def_cfa_offset 8
	.cfi_offset 5, -8
	movl	%esp, %ebp
	.cfi_def_cfa_register 5
	pushl	%edi
	pushl	%esi
	pushl	%ebx
	subl	$300, %esp
	.cfi_offset 7, -12
	.cfi_offset 6, -16
	.cfi_offset 3, -20
	movl	8(%ebp), %eax
	movl	%eax, -268(%ebp)
	movl	16(%ebp), %eax
	movl	%eax, -272(%ebp)
	movl	20(%ebp), %eax
	movl	%eax, -276(%ebp)
	movl	28(%ebp), %eax
	movl	%eax, -280(%ebp)
	leal	-248(%ebp), %eax
	movl	%eax, -284(%ebp)
	movl	%eax, -308(%ebp)
	cmpl	$0, __asan_option_detect_stack_use_after_return
	je	.L286
	subl	$8, %esp
	pushl	-284(%ebp)
	pushl	$220
	call	__asan_stack_malloc_2
	addl	$16, %esp
	movl	%eax, -284(%ebp)
.L286:
	movl	-284(%ebp), %edi
	movl	%edi, %eax
	addl	$224, %eax
	movl	%eax, %esi
	movl	%esi, -292(%ebp)
	movl	%edi, %eax
	movl	$1102416563, (%eax)
	movl	%edi, %eax
	movl	$.LC108, 4(%eax)
	movl	$.LASANPC14, 8(%eax)
	shrl	$3, %eax
	movl	%eax, -296(%ebp)
	movl	$-235802127, 536870912(%eax)
	movl	$-185273340, 536870916(%eax)
	movl	$-218959118, 536870920(%eax)
	movl	$-218959118, 536870928(%eax)
	movl	$-185335296, 536870932(%eax)
	movl	%gs:20, %eax
	movl	%eax, -28(%ebp)
	xorl	%eax, %eax
	movl	%esi, %eax
	addl	$-128, %eax
	movl	$32, %ebx
	movl	%ebx, -288(%ebp)
	movl	%eax, %esi
	movl	%esi, %eax
	shrl	$3, %eax
	addl	$536870912, %eax
	movzbl	(%eax), %edx
	testb	%dl, %dl
	setne	%cl
	movl	%esi, %eax
	andl	$7, %eax
	cmpb	%dl, %al
	setge	%al
	movl	%ecx, %edi
	andl	%eax, %edi
	movl	%ebx, %eax
	subl	$1, %eax
	leal	(%esi,%eax), %ecx
	movl	%ecx, %eax
	shrl	$3, %eax
	addl	$536870912, %eax
	movzbl	(%eax), %edx
	testb	%dl, %dl
	setne	%bl
	movl	%ecx, %eax
	andl	$7, %eax
	cmpb	%dl, %al
	setge	%al
	andl	%ebx, %eax
	orl	%edi, %eax
	testb	%al, %al
	je	.L290
	subl	$8, %esp
	pushl	-288(%ebp)
	pushl	%esi
	call	__asan_report_store_n
.L290:
	subl	$4, %esp
	pushl	$32
	pushl	$0
	movl	-292(%ebp), %edi
	movl	%edi, %eax
	addl	$-128, %eax
	pushl	%eax
	call	memset
	addl	$16, %esp
	movl	%edi, %eax
	movl	$0, -124(%eax)
	movl	%edi, %eax
	movl	$1, -128(%eax)
	movl	%edi, %eax
	movl	$1, -120(%eax)
	movzwl	port, %eax
	movzwl	%ax, %eax
	pushl	%eax
	pushl	$.LC109
	pushl	$10
	movl	%edi, %eax
	subl	$64, %eax
	pushl	%eax
	call	snprintf
	addl	$16, %esp
	movl	hostname, %eax
	leal	-192(%edi), %edx
	pushl	%edx
	leal	-128(%edi), %edx
	pushl	%edx
	leal	-64(%edi), %edx
	pushl	%edx
	pushl	%eax
	call	getaddrinfo
	addl	$16, %esp
	movl	%eax, -252(%ebp)
	cmpl	$0, -252(%ebp)
	je	.L291
	subl	$12, %esp
	pushl	-252(%ebp)
	call	gai_strerror
	addl	$16, %esp
	movl	%eax, %edx
	movl	hostname, %eax
	pushl	%edx
	pushl	%eax
	pushl	$.LC110
	pushl	$2
	call	syslog
	addl	$16, %esp
	subl	$12, %esp
	pushl	-252(%ebp)
	call	gai_strerror
	addl	$16, %esp
	movl	%eax, %edi
	movl	hostname, %esi
	movl	argv0, %ebx
	movl	$stderr, %eax
	movl	%eax, %edx
	movl	%edx, %eax
	shrl	$3, %eax
	addl	$536870912, %eax
	movzbl	(%eax), %ecx
	testb	%cl, %cl
	setne	-284(%ebp)
	movl	%edx, %eax
	andl	$7, %eax
	addl	$3, %eax
	cmpb	%cl, %al
	setge	%al
	andb	-284(%ebp), %al
	testb	%al, %al
	je	.L292
	subl	$12, %esp
	pushl	%edx
	call	__asan_report_load4
.L292:
	movl	stderr, %eax
	subl	$12, %esp
	pushl	%edi
	pushl	%esi
	pushl	%ebx
	pushl	$.LC111
	pushl	%eax
	call	fprintf
	addl	$32, %esp
	call	__asan_handle_no_return
	subl	$12, %esp
	pushl	$1
	call	exit
.L291:
	movl	$0, -260(%ebp)
	movl	$0, -256(%ebp)
	movl	-292(%ebp), %eax
	movl	-192(%eax), %eax
	movl	%eax, -264(%ebp)
	jmp	.L293
.L301:
	movl	-264(%ebp), %eax
	addl	$4, %eax
	movl	%eax, %edx
	movl	%edx, %eax
	shrl	$3, %eax
	addl	$536870912, %eax
	movzbl	(%eax), %ecx
	testb	%cl, %cl
	setne	%bl
	movl	%edx, %eax
	andl	$7, %eax
	addl	$3, %eax
	cmpb	%cl, %al
	setge	%al
	andl	%ebx, %eax
	testb	%al, %al
	je	.L294
	subl	$12, %esp
	pushl	%edx
	call	__asan_report_load4
.L294:
	movl	-264(%ebp), %eax
	movl	4(%eax), %eax
	cmpl	$2, %eax
	je	.L296
	cmpl	$10, %eax
	jne	.L295
	cmpl	$0, -260(%ebp)
	jne	.L298
	movl	-264(%ebp), %eax
	movl	%eax, -260(%ebp)
	jmp	.L295
.L298:
	jmp	.L295
.L296:
	cmpl	$0, -256(%ebp)
	jne	.L299
	movl	-264(%ebp), %eax
	movl	%eax, -256(%ebp)
	jmp	.L325
.L299:
.L325:
	nop
.L295:
	movl	-264(%ebp), %eax
	addl	$28, %eax
	movl	%eax, %edx
	movl	%edx, %eax
	shrl	$3, %eax
	addl	$536870912, %eax
	movzbl	(%eax), %ecx
	testb	%cl, %cl
	setne	%bl
	movl	%edx, %eax
	andl	$7, %eax
	addl	$3, %eax
	cmpb	%cl, %al
	setge	%al
	andl	%ebx, %eax
	testb	%al, %al
	je	.L300
	subl	$12, %esp
	pushl	%edx
	call	__asan_report_load4
.L300:
	movl	-264(%ebp), %eax
	movl	28(%eax), %eax
	movl	%eax, -264(%ebp)
.L293:
	cmpl	$0, -264(%ebp)
	jne	.L301
	cmpl	$0, -260(%ebp)
	jne	.L302
	movl	-280(%ebp), %edx
	movl	%edx, %eax
	shrl	$3, %eax
	addl	$536870912, %eax
	movzbl	(%eax), %ecx
	testb	%cl, %cl
	setne	%bl
	movl	%edx, %eax
	andl	$7, %eax
	addl	$3, %eax
	cmpb	%cl, %al
	setge	%al
	andl	%ebx, %eax
	testb	%al, %al
	je	.L303
	subl	$12, %esp
	pushl	%edx
	call	__asan_report_store4
.L303:
	movl	-280(%ebp), %eax
	movl	$0, (%eax)
	jmp	.L304
.L302:
	movl	-260(%ebp), %eax
	addl	$16, %eax
	movl	%eax, %edx
	movl	%edx, %eax
	shrl	$3, %eax
	addl	$536870912, %eax
	movzbl	(%eax), %ecx
	testb	%cl, %cl
	setne	%bl
	movl	%edx, %eax
	andl	$7, %eax
	addl	$3, %eax
	cmpb	%cl, %al
	setge	%al
	andl	%ebx, %eax
	testb	%al, %al
	je	.L305
	subl	$12, %esp
	pushl	%edx
	call	__asan_report_load4
.L305:
	movl	-260(%ebp), %eax
	movl	16(%eax), %eax
	cmpl	24(%ebp), %eax
	jbe	.L306
	movl	-260(%ebp), %eax
	movl	16(%eax), %edx
	movl	hostname, %eax
	subl	$12, %esp
	pushl	%edx
	pushl	24(%ebp)
	pushl	%eax
	pushl	$.LC112
	pushl	$2
	call	syslog
	addl	$32, %esp
	call	__asan_handle_no_return
	subl	$12, %esp
	pushl	$1
	call	exit
.L306:
	movl	24(%ebp), %edi
	testl	%edi, %edi
	je	.L307
	movl	-276(%ebp), %esi
	movl	%esi, %eax
	shrl	$3, %eax
	addl	$536870912, %eax
	movzbl	(%eax), %edx
	testb	%dl, %dl
	setne	%cl
	movl	%esi, %eax
	andl	$7, %eax
	cmpb	%dl, %al
	setge	%al
	andl	%eax, %ecx
	movb	%cl, -288(%ebp)
	leal	-1(%edi), %eax
	leal	(%esi,%eax), %ecx
	movl	%ecx, %eax
	shrl	$3, %eax
	addl	$536870912, %eax
	movzbl	(%eax), %edx
	testb	%dl, %dl
	setne	%bl
	movl	%ecx, %eax
	andl	$7, %eax
	cmpb	%dl, %al
	setge	%al
	andl	%ebx, %eax
	orb	-288(%ebp), %al
	testb	%al, %al
	je	.L307
	subl	$8, %esp
	pushl	%edi
	pushl	%esi
	call	__asan_report_store_n
.L307:
	subl	$4, %esp
	pushl	24(%ebp)
	pushl	$0
	pushl	-276(%ebp)
	call	memset
	addl	$16, %esp
	movl	-260(%ebp), %eax
	addl	$16, %eax
	movl	%eax, %edx
	movl	%edx, %eax
	shrl	$3, %eax
	addl	$536870912, %eax
	movzbl	(%eax), %ecx
	testb	%cl, %cl
	setne	%bl
	movl	%edx, %eax
	andl	$7, %eax
	addl	$3, %eax
	cmpb	%cl, %al
	setge	%al
	andl	%ebx, %eax
	testb	%al, %al
	je	.L308
	subl	$12, %esp
	pushl	%edx
	call	__asan_report_load4
.L308:
	movl	-260(%ebp), %eax
	movl	16(%eax), %eax
	movl	%eax, -288(%ebp)
	movl	-260(%ebp), %eax
	addl	$20, %eax
	movl	%eax, %ecx
	movl	%ecx, %eax
	shrl	$3, %eax
	addl	$536870912, %eax
	movzbl	(%eax), %edx
	testb	%dl, %dl
	setne	%bl
	movl	%ecx, %eax
	andl	$7, %eax
	addl	$3, %eax
	cmpb	%dl, %al
	setge	%al
	andl	%ebx, %eax
	testb	%al, %al
	je	.L309
	subl	$12, %esp
	pushl	%ecx
	call	__asan_report_load4
.L309:
	movl	-260(%ebp), %eax
	movl	20(%eax), %eax
	movl	%eax, -300(%ebp)
	movl	-288(%ebp), %edi
	testl	%edi, %edi
	je	.L310
	movl	%eax, %esi
	movl	%esi, %eax
	shrl	$3, %eax
	addl	$536870912, %eax
	movzbl	(%eax), %edx
	testb	%dl, %dl
	setne	%cl
	movl	%esi, %eax
	andl	$7, %eax
	cmpb	%dl, %al
	setge	%al
	andl	%eax, %ecx
	movb	%cl, -301(%ebp)
	leal	-1(%edi), %eax
	leal	(%esi,%eax), %ecx
	movl	%ecx, %eax
	shrl	$3, %eax
	addl	$536870912, %eax
	movzbl	(%eax), %edx
	testb	%dl, %dl
	setne	%bl
	movl	%ecx, %eax
	andl	$7, %eax
	cmpb	%dl, %al
	setge	%al
	andl	%ebx, %eax
	orb	-301(%ebp), %al
	testb	%al, %al
	je	.L310
	subl	$8, %esp
	pushl	%edi
	pushl	%esi
	call	__asan_report_load_n
.L310:
	movl	-288(%ebp), %esi
	testl	%esi, %esi
	je	.L311
	movl	-276(%ebp), %edi
	leal	-1(%esi), %eax
	leal	(%edi,%eax), %ecx
	movl	%ecx, %eax
	shrl	$3, %eax
	addl	$536870912, %eax
	movzbl	(%eax), %edx
	testb	%dl, %dl
	setne	%bl
	movl	%ecx, %eax
	andl	$7, %eax
	cmpb	%dl, %al
	setge	%al
	andl	%ebx, %eax
	testb	%al, %al
	je	.L311
	subl	$8, %esp
	pushl	%esi
	pushl	%edi
	call	__asan_report_store_n
.L311:
	subl	$4, %esp
	pushl	-288(%ebp)
	pushl	-300(%ebp)
	pushl	-276(%ebp)
	call	memmove
	addl	$16, %esp
	movl	-280(%ebp), %edx
	movl	%edx, %eax
	shrl	$3, %eax
	addl	$536870912, %eax
	movzbl	(%eax), %ecx
	testb	%cl, %cl
	setne	%bl
	movl	%edx, %eax
	andl	$7, %eax
	addl	$3, %eax
	cmpb	%cl, %al
	setge	%al
	andl	%ebx, %eax
	testb	%al, %al
	je	.L312
	subl	$12, %esp
	pushl	%edx
	call	__asan_report_store4
.L312:
	movl	-280(%ebp), %eax
	movl	$1, (%eax)
.L304:
	cmpl	$0, -256(%ebp)
	jne	.L313
	movl	-272(%ebp), %edx
	movl	%edx, %eax
	shrl	$3, %eax
	addl	$536870912, %eax
	movzbl	(%eax), %ecx
	testb	%cl, %cl
	setne	%bl
	movl	%edx, %eax
	andl	$7, %eax
	addl	$3, %eax
	cmpb	%cl, %al
	setge	%al
	andl	%ebx, %eax
	testb	%al, %al
	je	.L314
	subl	$12, %esp
	pushl	%edx
	call	__asan_report_store4
.L314:
	movl	-272(%ebp), %eax
	movl	$0, (%eax)
	jmp	.L315
.L313:
	movl	-256(%ebp), %eax
	addl	$16, %eax
	movl	%eax, %edx
	movl	%edx, %eax
	shrl	$3, %eax
	addl	$536870912, %eax
	movzbl	(%eax), %ecx
	testb	%cl, %cl
	setne	%bl
	movl	%edx, %eax
	andl	$7, %eax
	addl	$3, %eax
	cmpb	%cl, %al
	setge	%al
	andl	%ebx, %eax
	testb	%al, %al
	je	.L316
	subl	$12, %esp
	pushl	%edx
	call	__asan_report_load4
.L316:
	movl	-256(%ebp), %eax
	movl	16(%eax), %eax
	cmpl	12(%ebp), %eax
	jbe	.L317
	movl	-256(%ebp), %eax
	movl	16(%eax), %edx
	movl	hostname, %eax
	subl	$12, %esp
	pushl	%edx
	pushl	12(%ebp)
	pushl	%eax
	pushl	$.LC112
	pushl	$2
	call	syslog
	addl	$32, %esp
	call	__asan_handle_no_return
	subl	$12, %esp
	pushl	$1
	call	exit
.L317:
	movl	12(%ebp), %edi
	testl	%edi, %edi
	je	.L318
	movl	-268(%ebp), %esi
	movl	%esi, %eax
	shrl	$3, %eax
	addl	$536870912, %eax
	movzbl	(%eax), %edx
	testb	%dl, %dl
	setne	%cl
	movl	%esi, %eax
	andl	$7, %eax
	cmpb	%dl, %al
	setge	%al
	andl	%eax, %ecx
	movb	%cl, -288(%ebp)
	leal	-1(%edi), %eax
	leal	(%esi,%eax), %ecx
	movl	%ecx, %eax
	shrl	$3, %eax
	addl	$536870912, %eax
	movzbl	(%eax), %edx
	testb	%dl, %dl
	setne	%bl
	movl	%ecx, %eax
	andl	$7, %eax
	cmpb	%dl, %al
	setge	%al
	andl	%ebx, %eax
	orb	-288(%ebp), %al
	testb	%al, %al
	je	.L318
	subl	$8, %esp
	pushl	%edi
	pushl	%esi
	call	__asan_report_store_n
.L318:
	subl	$4, %esp
	pushl	12(%ebp)
	pushl	$0
	pushl	-268(%ebp)
	call	memset
	addl	$16, %esp
	movl	-256(%ebp), %eax
	addl	$16, %eax
	movl	%eax, %edx
	movl	%edx, %eax
	shrl	$3, %eax
	addl	$536870912, %eax
	movzbl	(%eax), %ecx
	testb	%cl, %cl
	setne	%bl
	movl	%edx, %eax
	andl	$7, %eax
	addl	$3, %eax
	cmpb	%cl, %al
	setge	%al
	andl	%ebx, %eax
	testb	%al, %al
	je	.L319
	subl	$12, %esp
	pushl	%edx
	call	__asan_report_load4
.L319:
	movl	-256(%ebp), %eax
	movl	16(%eax), %eax
	movl	%eax, -288(%ebp)
	movl	-256(%ebp), %eax
	addl	$20, %eax
	movl	%eax, %ecx
	movl	%ecx, %eax
	shrl	$3, %eax
	addl	$536870912, %eax
	movzbl	(%eax), %edx
	testb	%dl, %dl
	setne	%bl
	movl	%ecx, %eax
	andl	$7, %eax
	addl	$3, %eax
	cmpb	%dl, %al
	setge	%al
	andl	%ebx, %eax
	testb	%al, %al
	je	.L320
	subl	$12, %esp
	pushl	%ecx
	call	__asan_report_load4
.L320:
	movl	-256(%ebp), %eax
	movl	20(%eax), %eax
	movl	%eax, -300(%ebp)
	movl	-288(%ebp), %edi
	testl	%edi, %edi
	je	.L321
	movl	%eax, %esi
	movl	%esi, %eax
	shrl	$3, %eax
	addl	$536870912, %eax
	movzbl	(%eax), %edx
	testb	%dl, %dl
	setne	%cl
	movl	%esi, %eax
	andl	$7, %eax
	cmpb	%dl, %al
	setge	%al
	andl	%eax, %ecx
	movb	%cl, -301(%ebp)
	leal	-1(%edi), %eax
	leal	(%esi,%eax), %ecx
	movl	%ecx, %eax
	shrl	$3, %eax
	addl	$536870912, %eax
	movzbl	(%eax), %edx
	testb	%dl, %dl
	setne	%bl
	movl	%ecx, %eax
	andl	$7, %eax
	cmpb	%dl, %al
	setge	%al
	andl	%ebx, %eax
	orb	-301(%ebp), %al
	testb	%al, %al
	je	.L321
	subl	$8, %esp
	pushl	%edi
	pushl	%esi
	call	__asan_report_load_n
.L321:
	movl	-288(%ebp), %esi
	testl	%esi, %esi
	je	.L322
	movl	-268(%ebp), %edi
	leal	-1(%esi), %eax
	leal	(%edi,%eax), %ecx
	movl	%ecx, %eax
	shrl	$3, %eax
	addl	$536870912, %eax
	movzbl	(%eax), %edx
	testb	%dl, %dl
	setne	%bl
	movl	%ecx, %eax
	andl	$7, %eax
	cmpb	%dl, %al
	setge	%al
	andl	%ebx, %eax
	testb	%al, %al
	je	.L322
	subl	$8, %esp
	pushl	%esi
	pushl	%edi
	call	__asan_report_store_n
.L322:
	subl	$4, %esp
	pushl	-288(%ebp)
	pushl	-300(%ebp)
	pushl	-268(%ebp)
	call	memmove
	addl	$16, %esp
	movl	-272(%ebp), %edx
	movl	%edx, %eax
	shrl	$3, %eax
	addl	$536870912, %eax
	movzbl	(%eax), %ecx
	testb	%cl, %cl
	setne	%bl
	movl	%edx, %eax
	andl	$7, %eax
	addl	$3, %eax
	cmpb	%cl, %al
	setge	%al
	andl	%ebx, %eax
	testb	%al, %al
	je	.L323
	subl	$12, %esp
	pushl	%edx
	call	__asan_report_store4
.L323:
	movl	-272(%ebp), %eax
	movl	$1, (%eax)
.L315:
	movl	-292(%ebp), %eax
	movl	-192(%eax), %eax
	subl	$12, %esp
	pushl	%eax
	call	freeaddrinfo
	addl	$16, %esp
	movl	-284(%ebp), %esi
	cmpl	%esi, -308(%ebp)
	je	.L287
	movl	-284(%ebp), %eax
	movl	$1172321806, (%eax)
	movl	-296(%ebp), %eax
	movl	$-168430091, 536870912(%eax)
	movl	$-168430091, 536870916(%eax)
	movl	$-168430091, 536870920(%eax)
	movl	$-168430091, 536870924(%eax)
	movl	$-168430091, 536870928(%eax)
	movl	$-168430091, 536870932(%eax)
	movw	$-2571, 536870936(%eax)
	movb	$-11, 536870938(%eax)
	jmp	.L288
.L287:
	movl	-296(%ebp), %eax
	movl	$0, 536870912(%eax)
	movl	$0, 536870916(%eax)
	movl	$0, 536870920(%eax)
	movl	$0, 536870928(%eax)
	movl	$0, 536870932(%eax)
.L288:
	movl	-28(%ebp), %eax
	xorl	%gs:20, %eax
	je	.L324
	call	__stack_chk_fail
.L324:
	leal	-12(%ebp), %esp
	popl	%ebx
	.cfi_restore 3
	popl	%esi
	.cfi_restore 6
	popl	%edi
	.cfi_restore 7
	popl	%ebp
	.cfi_restore 5
	.cfi_def_cfa 4, 4
	ret
	.cfi_endproc
.LFE14:
	.size	lookup_hostname, .-lookup_hostname
	.section	.rodata
	.align 4
.LC113:
	.string	"5 32 4 9 max_limit 96 4 9 min_limit 160 8 2 tv 224 5000 3 buf 5280 5000 7 pattern "
	.align 32
.LC114:
	.string	" %4900[^ \t] %ld-%ld"
	.zero	44
	.align 32
.LC115:
	.string	" %4900[^ \t] %ld"
	.zero	48
	.align 32
.LC116:
	.string	"unparsable line in %.80s - %.80s"
	.zero	63
	.align 32
.LC117:
	.string	"%s: unparsable line in %.80s - %.80s\n"
	.zero	58
	.align 32
.LC118:
	.string	"|/"
	.zero	61
	.align 32
.LC119:
	.string	"out of memory allocating a throttletab"
	.zero	57
	.align 32
.LC120:
	.string	"%s: out of memory allocating a throttletab\n"
	.zero	52
	.text
	.type	read_throttlefile, @function
read_throttlefile:
.LASANPC15:
.LFB15:
	.cfi_startproc
	pushl	%ebp
	.cfi_def_cfa_offset 8
	.cfi_offset 5, -8
	movl	%esp, %ebp
	.cfi_def_cfa_register 5
	pushl	%edi
	pushl	%esi
	pushl	%ebx
	subl	$10396, %esp
	.cfi_offset 7, -12
	.cfi_offset 6, -16
	.cfi_offset 3, -20
	movl	8(%ebp), %eax
	movl	%eax, -10380(%ebp)
	leal	-10360(%ebp), %eax
	movl	%eax, -10384(%ebp)
	movl	%eax, -10392(%ebp)
	cmpl	$0, __asan_option_detect_stack_use_after_return
	je	.L326
	subl	$8, %esp
	pushl	-10384(%ebp)
	pushl	$10332
	call	__asan_stack_malloc_8
	addl	$16, %esp
	movl	%eax, -10384(%ebp)
.L326:
	movl	-10384(%ebp), %edi
	movl	%edi, %eax
	addl	$10336, %eax
	movl	%eax, %ebx
	movl	%edi, %eax
	movl	$1102416563, (%eax)
	movl	%edi, %eax
	movl	$.LC113, 4(%eax)
	movl	$.LASANPC15, 8(%eax)
	shrl	$3, %eax
	movl	%eax, -10396(%ebp)
	movl	$-235802127, 536870912(%eax)
	movl	$-185273340, 536870916(%eax)
	movl	$-218959118, 536870920(%eax)
	movl	$-185273340, 536870924(%eax)
	movl	$-218959118, 536870928(%eax)
	movl	$-185273344, 536870932(%eax)
	movl	$-218959118, 536870936(%eax)
	movl	$-185273344, 536871564(%eax)
	movl	$-218959118, 536871568(%eax)
	movl	$-185273344, 536872196(%eax)
	movl	%gs:20, %eax
	movl	%eax, -28(%ebp)
	xorl	%eax, %eax
	subl	$8, %esp
	pushl	$.LC75
	pushl	-10380(%ebp)
	call	fopen
	addl	$16, %esp
	movl	%eax, -10368(%ebp)
	cmpl	$0, -10368(%ebp)
	jne	.L332
	subl	$4, %esp
	pushl	-10380(%ebp)
	pushl	$.LC15
	pushl	$2
	call	syslog
	addl	$16, %esp
	subl	$12, %esp
	pushl	-10380(%ebp)
	call	perror
	addl	$16, %esp
	call	__asan_handle_no_return
	subl	$12, %esp
	pushl	$1
	call	exit
.L332:
	subl	$8, %esp
	pushl	$0
	leal	-10176(%ebx), %eax
	pushl	%eax
	call	gettimeofday
	addl	$16, %esp
	jmp	.L333
.L363:
	subl	$8, %esp
	pushl	$35
	leal	-10112(%ebx), %eax
	pushl	%eax
	call	strchr
	addl	$16, %esp
	movl	%eax, -10364(%ebp)
	cmpl	$0, -10364(%ebp)
	je	.L334
	movl	-10364(%ebp), %edx
	movl	%edx, %eax
	shrl	$3, %eax
	addl	$536870912, %eax
	movzbl	(%eax), %ecx
	testb	%cl, %cl
	setne	%al
	movl	%eax, %esi
	movl	%edx, %eax
	andl	$7, %eax
	cmpb	%cl, %al
	setge	%al
	andl	%esi, %eax
	testb	%al, %al
	je	.L335
	subl	$12, %esp
	pushl	%edx
	call	__asan_report_store1
.L335:
	movl	-10364(%ebp), %eax
	movb	$0, (%eax)
.L334:
	subl	$12, %esp
	leal	-10112(%ebx), %eax
	pushl	%eax
	call	strlen
	addl	$16, %esp
	movl	%eax, -10388(%ebp)
	leal	-10112(%ebx), %edi
	movl	%edi, %ecx
	movl	%ecx, %eax
	shrl	$3, %eax
	addl	$536870912, %eax
	movzbl	(%eax), %edx
	testb	%dl, %dl
	setne	%al
	movl	%eax, %esi
	movl	%ecx, %eax
	andl	$7, %eax
	cmpb	%dl, %al
	setge	%al
	andl	%esi, %eax
	testb	%al, %al
	je	.L336
	subl	$12, %esp
	pushl	%ecx
	call	__asan_report_load1
.L336:
	movl	-10388(%ebp), %eax
	addl	%edi, %eax
	movl	%eax, %ecx
	movl	%ecx, %eax
	shrl	$3, %eax
	addl	$536870912, %eax
	movzbl	(%eax), %edx
	testb	%dl, %dl
	setne	%al
	movl	%eax, %esi
	movl	%ecx, %eax
	andl	$7, %eax
	cmpb	%dl, %al
	setge	%al
	andl	%esi, %eax
	testb	%al, %al
	je	.L337
	subl	$12, %esp
	pushl	%ecx
	call	__asan_report_load1
.L337:
	movl	-10388(%ebp), %eax
	movl	%eax, -10372(%ebp)
	jmp	.L338
.L342:
	subl	$1, -10372(%ebp)
	leal	-10112(%ebx), %edx
	movl	-10372(%ebp), %eax
	addl	%edx, %eax
	movl	%eax, %edx
	movl	%edx, %eax
	shrl	$3, %eax
	addl	$536870912, %eax
	movzbl	(%eax), %ecx
	testb	%cl, %cl
	setne	%al
	movl	%eax, %esi
	movl	%edx, %eax
	andl	$7, %eax
	cmpb	%cl, %al
	setge	%al
	andl	%esi, %eax
	testb	%al, %al
	je	.L339
	subl	$12, %esp
	pushl	%edx
	call	__asan_report_store1
.L339:
	movl	-10372(%ebp), %eax
	addl	%ebx, %eax
	subl	$10112, %eax
	movb	$0, (%eax)
.L338:
	cmpl	$0, -10372(%ebp)
	jle	.L340
	movl	-10372(%ebp), %eax
	leal	-1(%eax), %edi
	leal	-10112(%ebx), %eax
	addl	%edi, %eax
	movl	%eax, %ecx
	movl	%ecx, %eax
	shrl	$3, %eax
	addl	$536870912, %eax
	movzbl	(%eax), %edx
	testb	%dl, %dl
	setne	%al
	movl	%eax, %esi
	movl	%ecx, %eax
	andl	$7, %eax
	cmpb	%dl, %al
	setge	%al
	andl	%esi, %eax
	testb	%al, %al
	je	.L341
	subl	$12, %esp
	pushl	%ecx
	call	__asan_report_load1
.L341:
	movzbl	-10112(%edi,%ebx), %eax
	cmpb	$32, %al
	je	.L342
	movl	-10372(%ebp), %eax
	leal	-1(%eax), %edi
	leal	-10112(%ebx), %eax
	addl	%edi, %eax
	movl	%eax, %ecx
	movl	%ecx, %eax
	shrl	$3, %eax
	addl	$536870912, %eax
	movzbl	(%eax), %edx
	testb	%dl, %dl
	setne	%al
	movl	%eax, %esi
	movl	%ecx, %eax
	andl	$7, %eax
	cmpb	%dl, %al
	setge	%al
	andl	%esi, %eax
	testb	%al, %al
	je	.L343
	subl	$12, %esp
	pushl	%ecx
	call	__asan_report_load1
.L343:
	movzbl	-10112(%edi,%ebx), %eax
	cmpb	$9, %al
	je	.L342
	movl	-10372(%ebp), %eax
	leal	-1(%eax), %edi
	leal	-10112(%ebx), %eax
	addl	%edi, %eax
	movl	%eax, %ecx
	movl	%ecx, %eax
	shrl	$3, %eax
	addl	$536870912, %eax
	movzbl	(%eax), %edx
	testb	%dl, %dl
	setne	%al
	movl	%eax, %esi
	movl	%ecx, %eax
	andl	$7, %eax
	cmpb	%dl, %al
	setge	%al
	andl	%esi, %eax
	testb	%al, %al
	je	.L344
	subl	$12, %esp
	pushl	%ecx
	call	__asan_report_load1
.L344:
	movzbl	-10112(%edi,%ebx), %eax
	cmpb	$10, %al
	je	.L342
	movl	-10372(%ebp), %eax
	leal	-1(%eax), %edi
	leal	-10112(%ebx), %eax
	addl	%edi, %eax
	movl	%eax, %ecx
	movl	%ecx, %eax
	shrl	$3, %eax
	addl	$536870912, %eax
	movzbl	(%eax), %edx
	testb	%dl, %dl
	setne	%al
	movl	%eax, %esi
	movl	%ecx, %eax
	andl	$7, %eax
	cmpb	%dl, %al
	setge	%al
	andl	%esi, %eax
	testb	%al, %al
	je	.L345
	subl	$12, %esp
	pushl	%ecx
	call	__asan_report_load1
.L345:
	movzbl	-10112(%edi,%ebx), %eax
	cmpb	$13, %al
	je	.L342
.L340:
	cmpl	$0, -10372(%ebp)
	jne	.L346
	jmp	.L333
.L346:
	subl	$12, %esp
	leal	-10304(%ebx), %eax
	pushl	%eax
	leal	-10240(%ebx), %eax
	pushl	%eax
	leal	-5056(%ebx), %eax
	pushl	%eax
	pushl	$.LC114
	leal	-10112(%ebx), %eax
	pushl	%eax
	call	__isoc99_sscanf
	addl	$32, %esp
	cmpl	$3, %eax
	je	.L347
	leal	-10304(%ebx), %eax
	pushl	%eax
	leal	-5056(%ebx), %eax
	pushl	%eax
	pushl	$.LC115
	leal	-10112(%ebx), %eax
	pushl	%eax
	call	__isoc99_sscanf
	addl	$16, %esp
	cmpl	$2, %eax
	jne	.L348
	movl	$0, -10240(%ebx)
	jmp	.L347
.L348:
	leal	-10112(%ebx), %eax
	pushl	%eax
	pushl	-10380(%ebp)
	pushl	$.LC116
	pushl	$2
	call	syslog
	addl	$16, %esp
	movl	argv0, %edi
	movl	$stderr, %eax
	movl	%eax, %ecx
	movl	%ecx, %eax
	shrl	$3, %eax
	addl	$536870912, %eax
	movzbl	(%eax), %edx
	testb	%dl, %dl
	setne	%al
	movl	%eax, %esi
	movl	%ecx, %eax
	andl	$7, %eax
	addl	$3, %eax
	cmpb	%dl, %al
	setge	%al
	andl	%esi, %eax
	testb	%al, %al
	je	.L349
	subl	$12, %esp
	pushl	%ecx
	call	__asan_report_load4
.L349:
	movl	stderr, %eax
	subl	$12, %esp
	leal	-10112(%ebx), %edx
	pushl	%edx
	pushl	-10380(%ebp)
	pushl	%edi
	pushl	$.LC117
	pushl	%eax
	call	fprintf
	addl	$32, %esp
	jmp	.L333
.L347:
	movzbl	-5056(%ebx), %eax
	cmpb	$47, %al
	jne	.L350
	subl	$8, %esp
	leal	-5056(%ebx), %eax
	addl	$1, %eax
	pushl	%eax
	leal	-5056(%ebx), %eax
	pushl	%eax
	call	strcpy
	addl	$16, %esp
.L350:
	jmp	.L351
.L352:
	movl	-10364(%ebp), %eax
	leal	2(%eax), %edx
	movl	-10364(%ebp), %eax
	addl	$1, %eax
	subl	$8, %esp
	pushl	%edx
	pushl	%eax
	call	strcpy
	addl	$16, %esp
.L351:
	subl	$8, %esp
	pushl	$.LC118
	leal	-5056(%ebx), %eax
	pushl	%eax
	call	strstr
	addl	$16, %esp
	movl	%eax, -10364(%ebp)
	cmpl	$0, -10364(%ebp)
	jne	.L352
	movl	numthrottles, %edx
	movl	maxthrottles, %eax
	cmpl	%eax, %edx
	jl	.L353
	movl	maxthrottles, %eax
	testl	%eax, %eax
	jne	.L354
	movl	$100, maxthrottles
	movl	maxthrottles, %eax
	movl	%eax, %edx
	movl	%edx, %eax
	addl	%eax, %eax
	addl	%edx, %eax
	sall	$3, %eax
	subl	$12, %esp
	pushl	%eax
	call	malloc
	addl	$16, %esp
	movl	%eax, throttles
	jmp	.L355
.L354:
	movl	maxthrottles, %eax
	addl	%eax, %eax
	movl	%eax, maxthrottles
	movl	maxthrottles, %eax
	movl	%eax, %edx
	movl	%edx, %eax
	addl	%eax, %eax
	addl	%edx, %eax
	sall	$3, %eax
	movl	%eax, %edx
	movl	throttles, %eax
	subl	$8, %esp
	pushl	%edx
	pushl	%eax
	call	realloc
	addl	$16, %esp
	movl	%eax, throttles
.L355:
	movl	throttles, %eax
	testl	%eax, %eax
	jne	.L353
	subl	$8, %esp
	pushl	$.LC119
	pushl	$2
	call	syslog
	addl	$16, %esp
	movl	argv0, %edi
	movl	$stderr, %eax
	movl	%eax, %edx
	shrl	$3, %edx
	addl	$536870912, %edx
	movzbl	(%edx), %edx
	testb	%dl, %dl
	setne	%bl
	movl	%eax, %esi
	andl	$7, %esi
	addl	$3, %esi
	movl	%esi, %ecx
	cmpb	%dl, %cl
	setge	%dl
	andl	%ebx, %edx
	testb	%dl, %dl
	je	.L356
	subl	$12, %esp
	pushl	%eax
	call	__asan_report_load4
.L356:
	movl	stderr, %eax
	subl	$4, %esp
	pushl	%edi
	pushl	$.LC120
	pushl	%eax
	call	fprintf
	addl	$16, %esp
	call	__asan_handle_no_return
	subl	$12, %esp
	pushl	$1
	call	exit
.L353:
	movl	throttles, %edx
	movl	numthrottles, %eax
	movl	%eax, %ecx
	movl	%ecx, %eax
	addl	%eax, %eax
	addl	%ecx, %eax
	sall	$3, %eax
	leal	(%edx,%eax), %edi
	subl	$12, %esp
	leal	-5056(%ebx), %eax
	pushl	%eax
	call	e_strdup
	addl	$16, %esp
	movl	%eax, -10388(%ebp)
	movl	%edi, %eax
	movl	%eax, %ecx
	movl	%ecx, %eax
	shrl	$3, %eax
	addl	$536870912, %eax
	movzbl	(%eax), %edx
	testb	%dl, %dl
	setne	%al
	movl	%eax, %esi
	movl	%ecx, %eax
	andl	$7, %eax
	addl	$3, %eax
	cmpb	%dl, %al
	setge	%al
	andl	%esi, %eax
	testb	%al, %al
	je	.L357
	subl	$12, %esp
	pushl	%ecx
	call	__asan_report_store4
.L357:
	movl	-10388(%ebp), %eax
	movl	%eax, (%edi)
	movl	throttles, %edx
	movl	numthrottles, %eax
	movl	%eax, %ecx
	movl	%ecx, %eax
	addl	%eax, %eax
	addl	%ecx, %eax
	sall	$3, %eax
	leal	(%edx,%eax), %edi
	movl	-10304(%ebx), %eax
	movl	%eax, -10388(%ebp)
	leal	4(%edi), %eax
	movl	%eax, %ecx
	movl	%ecx, %eax
	shrl	$3, %eax
	addl	$536870912, %eax
	movzbl	(%eax), %edx
	testb	%dl, %dl
	setne	%al
	movl	%eax, %esi
	movl	%ecx, %eax
	andl	$7, %eax
	addl	$3, %eax
	cmpb	%dl, %al
	setge	%al
	andl	%esi, %eax
	testb	%al, %al
	je	.L358
	subl	$12, %esp
	pushl	%ecx
	call	__asan_report_store4
.L358:
	movl	-10388(%ebp), %eax
	movl	%eax, 4(%edi)
	movl	throttles, %edx
	movl	numthrottles, %eax
	movl	%eax, %ecx
	movl	%ecx, %eax
	addl	%eax, %eax
	addl	%ecx, %eax
	sall	$3, %eax
	leal	(%edx,%eax), %edi
	movl	-10240(%ebx), %eax
	movl	%eax, -10388(%ebp)
	leal	8(%edi), %eax
	movl	%eax, %ecx
	movl	%ecx, %eax
	shrl	$3, %eax
	addl	$536870912, %eax
	movzbl	(%eax), %edx
	testb	%dl, %dl
	setne	%al
	movl	%eax, %esi
	movl	%ecx, %eax
	andl	$7, %eax
	addl	$3, %eax
	cmpb	%dl, %al
	setge	%al
	andl	%esi, %eax
	testb	%al, %al
	je	.L359
	subl	$12, %esp
	pushl	%ecx
	call	__asan_report_store4
.L359:
	movl	-10388(%ebp), %eax
	movl	%eax, 8(%edi)
	movl	throttles, %edx
	movl	numthrottles, %eax
	movl	%eax, %ecx
	movl	%ecx, %eax
	addl	%eax, %eax
	addl	%ecx, %eax
	sall	$3, %eax
	leal	(%edx,%eax), %edi
	leal	12(%edi), %eax
	movl	%eax, %ecx
	movl	%ecx, %eax
	shrl	$3, %eax
	addl	$536870912, %eax
	movzbl	(%eax), %edx
	testb	%dl, %dl
	setne	%al
	movl	%eax, %esi
	movl	%ecx, %eax
	andl	$7, %eax
	addl	$3, %eax
	cmpb	%dl, %al
	setge	%al
	andl	%esi, %eax
	testb	%al, %al
	je	.L360
	subl	$12, %esp
	pushl	%ecx
	call	__asan_report_store4
.L360:
	movl	$0, 12(%edi)
	movl	throttles, %edx
	movl	numthrottles, %eax
	movl	%eax, %ecx
	movl	%ecx, %eax
	addl	%eax, %eax
	addl	%ecx, %eax
	sall	$3, %eax
	leal	(%edx,%eax), %edi
	leal	16(%edi), %eax
	movl	%eax, %ecx
	movl	%ecx, %eax
	shrl	$3, %eax
	addl	$536870912, %eax
	movzbl	(%eax), %edx
	testb	%dl, %dl
	setne	%al
	movl	%eax, %esi
	movl	%ecx, %eax
	andl	$7, %eax
	addl	$3, %eax
	cmpb	%dl, %al
	setge	%al
	andl	%esi, %eax
	testb	%al, %al
	je	.L361
	subl	$12, %esp
	pushl	%ecx
	call	__asan_report_store4
.L361:
	movl	$0, 16(%edi)
	movl	throttles, %edx
	movl	numthrottles, %eax
	movl	%eax, %ecx
	movl	%ecx, %eax
	addl	%eax, %eax
	addl	%ecx, %eax
	sall	$3, %eax
	leal	(%edx,%eax), %edi
	leal	20(%edi), %eax
	movl	%eax, %ecx
	movl	%ecx, %eax
	shrl	$3, %eax
	addl	$536870912, %eax
	movzbl	(%eax), %edx
	testb	%dl, %dl
	setne	%al
	movl	%eax, %esi
	movl	%ecx, %eax
	andl	$7, %eax
	addl	$3, %eax
	cmpb	%dl, %al
	setge	%al
	andl	%esi, %eax
	testb	%al, %al
	je	.L362
	subl	$12, %esp
	pushl	%ecx
	call	__asan_report_store4
.L362:
	movl	$0, 20(%edi)
	movl	numthrottles, %eax
	addl	$1, %eax
	movl	%eax, numthrottles
.L333:
	subl	$4, %esp
	pushl	-10368(%ebp)
	pushl	$5000
	leal	-10112(%ebx), %eax
	pushl	%eax
	call	fgets
	addl	$16, %esp
	testl	%eax, %eax
	jne	.L363
	subl	$12, %esp
	pushl	-10368(%ebp)
	call	fclose
	addl	$16, %esp
	movl	-10384(%ebp), %edi
	cmpl	%edi, -10392(%ebp)
	je	.L327
	movl	-10384(%ebp), %eax
	movl	$1172321806, (%eax)
	subl	$4, %esp
	pushl	-10392(%ebp)
	pushl	$10332
	pushl	%eax
	call	__asan_stack_free_8
	addl	$16, %esp
	jmp	.L328
.L327:
	movl	-10396(%ebp), %eax
	addl	$536870912, %eax
	movl	$28, %ecx
	movl	$0, %ebx
	movl	%ebx, (%eax)
	movl	%ebx, -4(%eax,%ecx)
	leal	4(%eax), %edx
	andl	$-4, %edx
	subl	%edx, %eax
	addl	%eax, %ecx
	andl	$-4, %ecx
	andl	$-4, %ecx
	movl	$0, %eax
.L329:
	movl	%ebx, (%edx,%eax)
	addl	$4, %eax
	cmpl	%ecx, %eax
	jb	.L329
	addl	%eax, %edx
	movl	-10396(%ebp), %eax
	movl	$0, 536871564(%eax)
	movl	$0, 536871568(%eax)
	movl	$0, 536872196(%eax)
.L328:
	movl	-28(%ebp), %eax
	xorl	%gs:20, %eax
	je	.L364
	call	__stack_chk_fail
.L364:
	leal	-12(%ebp), %esp
	popl	%ebx
	.cfi_restore 3
	popl	%esi
	.cfi_restore 6
	popl	%edi
	.cfi_restore 7
	popl	%ebp
	.cfi_restore 5
	.cfi_def_cfa 4, 4
	ret
	.cfi_endproc
.LFE15:
	.size	read_throttlefile, .-read_throttlefile
	.section	.rodata
.LC121:
	.string	"1 32 8 2 tv "
	.text
	.type	shut_down, @function
shut_down:
.LASANPC16:
.LFB16:
	.cfi_startproc
	pushl	%ebp
	.cfi_def_cfa_offset 8
	.cfi_offset 5, -8
	movl	%esp, %ebp
	.cfi_def_cfa_register 5
	pushl	%edi
	pushl	%esi
	pushl	%ebx
	subl	$140, %esp
	.cfi_offset 7, -12
	.cfi_offset 6, -16
	.cfi_offset 3, -20
	leal	-120(%ebp), %eax
	movl	%eax, -140(%ebp)
	movl	%eax, -148(%ebp)
	cmpl	$0, __asan_option_detect_stack_use_after_return
	je	.L365
	subl	$8, %esp
	pushl	-140(%ebp)
	pushl	$96
	call	__asan_stack_malloc_1
	addl	$16, %esp
	movl	%eax, -140(%ebp)
.L365:
	movl	-140(%ebp), %edi
	movl	%edi, %eax
	addl	$96, %eax
	movl	%eax, %ebx
	movl	%ebx, -144(%ebp)
	movl	%edi, %eax
	movl	$1102416563, (%eax)
	movl	%edi, %eax
	movl	$.LC121, 4(%eax)
	movl	$.LASANPC16, 8(%eax)
	shrl	$3, %eax
	movl	%eax, %edi
	movl	$-235802127, 536870912(%edi)
	movl	$-185273344, 536870916(%edi)
	movl	$-202116109, 536870920(%edi)
	subl	$8, %esp
	pushl	$0
	movl	%ebx, %eax
	subl	$64, %eax
	pushl	%eax
	call	gettimeofday
	addl	$16, %esp
	subl	$12, %esp
	movl	%ebx, %eax
	subl	$64, %eax
	pushl	%eax
	call	logstats
	addl	$16, %esp
	movl	$0, -128(%ebp)
	jmp	.L369
.L378:
	movl	connects, %ecx
	movl	-128(%ebp), %edx
	movl	%edx, %eax
	addl	%eax, %eax
	addl	%edx, %eax
	sall	$5, %eax
	leal	(%ecx,%eax), %esi
	movl	%esi, %eax
	movl	%eax, %ecx
	movl	%ecx, %eax
	shrl	$3, %eax
	addl	$536870912, %eax
	movzbl	(%eax), %edx
	testb	%dl, %dl
	setne	%bl
	movl	%ecx, %eax
	andl	$7, %eax
	addl	$3, %eax
	cmpb	%dl, %al
	setge	%al
	andl	%ebx, %eax
	testb	%al, %al
	je	.L370
	subl	$12, %esp
	pushl	%ecx
	call	__asan_report_load4
.L370:
	movl	(%esi), %eax
	testl	%eax, %eax
	je	.L371
	movl	connects, %ecx
	movl	-128(%ebp), %edx
	movl	%edx, %eax
	addl	%eax, %eax
	addl	%edx, %eax
	sall	$5, %eax
	leal	(%ecx,%eax), %esi
	leal	8(%esi), %eax
	movl	%eax, %ecx
	movl	%ecx, %eax
	shrl	$3, %eax
	addl	$536870912, %eax
	movzbl	(%eax), %edx
	testb	%dl, %dl
	setne	%bl
	movl	%ecx, %eax
	andl	$7, %eax
	addl	$3, %eax
	cmpb	%dl, %al
	setge	%al
	andl	%ebx, %eax
	testb	%al, %al
	je	.L372
	subl	$12, %esp
	pushl	%ecx
	call	__asan_report_load4
.L372:
	movl	8(%esi), %eax
	subl	$8, %esp
	movl	-144(%ebp), %esi
	leal	-64(%esi), %edx
	pushl	%edx
	pushl	%eax
	call	httpd_close_conn
	addl	$16, %esp
.L371:
	movl	connects, %ecx
	movl	-128(%ebp), %edx
	movl	%edx, %eax
	addl	%eax, %eax
	addl	%edx, %eax
	sall	$5, %eax
	leal	(%ecx,%eax), %esi
	leal	8(%esi), %eax
	movl	%eax, %ecx
	movl	%ecx, %eax
	shrl	$3, %eax
	addl	$536870912, %eax
	movzbl	(%eax), %edx
	testb	%dl, %dl
	setne	%bl
	movl	%ecx, %eax
	andl	$7, %eax
	addl	$3, %eax
	cmpb	%dl, %al
	setge	%al
	andl	%ebx, %eax
	testb	%al, %al
	je	.L373
	subl	$12, %esp
	pushl	%ecx
	call	__asan_report_load4
.L373:
	movl	8(%esi), %eax
	testl	%eax, %eax
	je	.L374
	movl	connects, %ecx
	movl	-128(%ebp), %edx
	movl	%edx, %eax
	addl	%eax, %eax
	addl	%edx, %eax
	sall	$5, %eax
	leal	(%ecx,%eax), %esi
	leal	8(%esi), %eax
	movl	%eax, %ecx
	movl	%ecx, %eax
	shrl	$3, %eax
	addl	$536870912, %eax
	movzbl	(%eax), %edx
	testb	%dl, %dl
	setne	%bl
	movl	%ecx, %eax
	andl	$7, %eax
	addl	$3, %eax
	cmpb	%dl, %al
	setge	%al
	andl	%ebx, %eax
	testb	%al, %al
	je	.L375
	subl	$12, %esp
	pushl	%ecx
	call	__asan_report_load4
.L375:
	movl	8(%esi), %eax
	subl	$12, %esp
	pushl	%eax
	call	httpd_destroy_conn
	addl	$16, %esp
	movl	connects, %ecx
	movl	-128(%ebp), %edx
	movl	%edx, %eax
	addl	%eax, %eax
	addl	%edx, %eax
	sall	$5, %eax
	leal	(%ecx,%eax), %esi
	leal	8(%esi), %eax
	movl	%eax, %ecx
	movl	%ecx, %eax
	shrl	$3, %eax
	addl	$536870912, %eax
	movzbl	(%eax), %edx
	testb	%dl, %dl
	setne	%bl
	movl	%ecx, %eax
	andl	$7, %eax
	addl	$3, %eax
	cmpb	%dl, %al
	setge	%al
	andl	%ebx, %eax
	testb	%al, %al
	je	.L376
	subl	$12, %esp
	pushl	%ecx
	call	__asan_report_load4
.L376:
	movl	8(%esi), %eax
	subl	$12, %esp
	pushl	%eax
	call	free
	addl	$16, %esp
	movl	httpd_conn_count, %eax
	subl	$1, %eax
	movl	%eax, httpd_conn_count
	movl	connects, %ecx
	movl	-128(%ebp), %edx
	movl	%edx, %eax
	addl	%eax, %eax
	addl	%edx, %eax
	sall	$5, %eax
	leal	(%ecx,%eax), %esi
	leal	8(%esi), %eax
	movl	%eax, %ecx
	movl	%ecx, %eax
	shrl	$3, %eax
	addl	$536870912, %eax
	movzbl	(%eax), %edx
	testb	%dl, %dl
	setne	%bl
	movl	%ecx, %eax
	andl	$7, %eax
	addl	$3, %eax
	cmpb	%dl, %al
	setge	%al
	andl	%ebx, %eax
	testb	%al, %al
	je	.L377
	subl	$12, %esp
	pushl	%ecx
	call	__asan_report_store4
.L377:
	movl	$0, 8(%esi)
.L374:
	addl	$1, -128(%ebp)
.L369:
	movl	max_connects, %eax
	cmpl	%eax, -128(%ebp)
	jl	.L378
	movl	hs, %eax
	testl	%eax, %eax
	je	.L379
	movl	hs, %eax
	movl	%eax, -124(%ebp)
	movl	$0, hs
	movl	-124(%ebp), %eax
	addl	$40, %eax
	movl	%eax, %edx
	movl	%edx, %eax
	shrl	$3, %eax
	addl	$536870912, %eax
	movzbl	(%eax), %ecx
	testb	%cl, %cl
	setne	%bl
	movl	%edx, %eax
	andl	$7, %eax
	addl	$3, %eax
	cmpb	%cl, %al
	setge	%al
	andl	%ebx, %eax
	testb	%al, %al
	je	.L380
	subl	$12, %esp
	pushl	%edx
	call	__asan_report_load4
.L380:
	movl	-124(%ebp), %eax
	movl	40(%eax), %eax
	cmpl	$-1, %eax
	je	.L381
	movl	-124(%ebp), %eax
	movl	40(%eax), %eax
	subl	$12, %esp
	pushl	%eax
	call	fdwatch_del_fd
	addl	$16, %esp
.L381:
	movl	-124(%ebp), %eax
	addl	$44, %eax
	movl	%eax, %edx
	movl	%edx, %eax
	shrl	$3, %eax
	addl	$536870912, %eax
	movzbl	(%eax), %ecx
	testb	%cl, %cl
	setne	%bl
	movl	%edx, %eax
	andl	$7, %eax
	addl	$3, %eax
	cmpb	%cl, %al
	setge	%al
	andl	%ebx, %eax
	testb	%al, %al
	je	.L382
	subl	$12, %esp
	pushl	%edx
	call	__asan_report_load4
.L382:
	movl	-124(%ebp), %eax
	movl	44(%eax), %eax
	cmpl	$-1, %eax
	je	.L383
	movl	-124(%ebp), %eax
	movl	44(%eax), %eax
	subl	$12, %esp
	pushl	%eax
	call	fdwatch_del_fd
	addl	$16, %esp
.L383:
	subl	$12, %esp
	pushl	-124(%ebp)
	call	httpd_terminate
	addl	$16, %esp
.L379:
	call	mmc_destroy
	call	tmr_destroy
	movl	connects, %eax
	subl	$12, %esp
	pushl	%eax
	call	free
	addl	$16, %esp
	movl	throttles, %eax
	testl	%eax, %eax
	je	.L368
	movl	throttles, %eax
	subl	$12, %esp
	pushl	%eax
	call	free
	addl	$16, %esp
.L368:
	movl	-140(%ebp), %esi
	cmpl	%esi, -148(%ebp)
	je	.L366
	movl	-140(%ebp), %eax
	movl	$1172321806, (%eax)
	movl	$-168430091, 536870912(%edi)
	movl	$-168430091, 536870916(%edi)
	movl	$-168430091, 536870920(%edi)
	jmp	.L367
.L366:
	movl	$0, 536870912(%edi)
	movl	$0, 536870916(%edi)
	movl	$0, 536870920(%edi)
.L367:
	leal	-12(%ebp), %esp
	popl	%ebx
	.cfi_restore 3
	popl	%esi
	.cfi_restore 6
	popl	%edi
	.cfi_restore 7
	popl	%ebp
	.cfi_restore 5
	.cfi_def_cfa 4, 4
	ret
	.cfi_endproc
.LFE16:
	.size	shut_down, .-shut_down
	.section	.rodata
.LC122:
	.string	"1 32 4 11 client_data "
	.align 32
.LC123:
	.string	"too many connections!"
	.zero	42
	.align 32
.LC124:
	.string	"the connects free list is messed up"
	.zero	60
	.align 32
.LC125:
	.string	"out of memory allocating an httpd_conn"
	.zero	57
	.text
	.type	handle_newconnect, @function
handle_newconnect:
.LASANPC17:
.LFB17:
	.cfi_startproc
	pushl	%ebp
	.cfi_def_cfa_offset 8
	.cfi_offset 5, -8
	movl	%esp, %ebp
	.cfi_def_cfa_register 5
	pushl	%edi
	pushl	%esi
	pushl	%ebx
	subl	$140, %esp
	.cfi_offset 7, -12
	.cfi_offset 6, -16
	.cfi_offset 3, -20
	leal	-120(%ebp), %eax
	movl	%eax, -140(%ebp)
	movl	%eax, -148(%ebp)
	cmpl	$0, __asan_option_detect_stack_use_after_return
	je	.L385
	subl	$8, %esp
	pushl	-140(%ebp)
	pushl	$96
	call	__asan_stack_malloc_1
	addl	$16, %esp
	movl	%eax, -140(%ebp)
.L385:
	movl	-140(%ebp), %edi
	movl	%edi, %eax
	addl	$96, %eax
	movl	%eax, -144(%ebp)
	movl	%edi, %eax
	movl	$1102416563, (%eax)
	movl	%edi, %eax
	movl	$.LC122, 4(%eax)
	movl	$.LASANPC17, 8(%eax)
	shrl	$3, %eax
	movl	%eax, %edi
	movl	$-235802127, 536870912(%edi)
	movl	$-185273340, 536870916(%edi)
	movl	$-202116109, 536870920(%edi)
.L416:
	movl	num_connects, %edx
	movl	max_connects, %eax
	cmpl	%eax, %edx
	jl	.L389
	subl	$8, %esp
	pushl	$.LC123
	pushl	$4
	call	syslog
	addl	$16, %esp
	subl	$12, %esp
	pushl	8(%ebp)
	call	tmr_run
	addl	$16, %esp
	movl	$0, %eax
	jmp	.L417
.L389:
	movl	first_free_connect, %eax
	cmpl	$-1, %eax
	je	.L391
	movl	connects, %edx
	movl	first_free_connect, %eax
	movl	%eax, %ecx
	movl	%ecx, %eax
	addl	%eax, %eax
	addl	%ecx, %eax
	sall	$5, %eax
	leal	(%edx,%eax), %esi
	movl	%esi, %eax
	movl	%eax, %ecx
	movl	%ecx, %eax
	shrl	$3, %eax
	addl	$536870912, %eax
	movzbl	(%eax), %edx
	testb	%dl, %dl
	setne	%bl
	movl	%ecx, %eax
	andl	$7, %eax
	addl	$3, %eax
	cmpb	%dl, %al
	setge	%al
	andl	%ebx, %eax
	testb	%al, %al
	je	.L392
	subl	$12, %esp
	pushl	%ecx
	call	__asan_report_load4
.L392:
	movl	(%esi), %eax
	testl	%eax, %eax
	je	.L393
.L391:
	subl	$8, %esp
	pushl	$.LC124
	pushl	$2
	call	syslog
	addl	$16, %esp
	call	__asan_handle_no_return
	subl	$12, %esp
	pushl	$1
	call	exit
.L393:
	movl	connects, %edx
	movl	first_free_connect, %eax
	movl	%eax, %ecx
	movl	%ecx, %eax
	addl	%eax, %eax
	addl	%ecx, %eax
	sall	$5, %eax
	addl	%edx, %eax
	movl	%eax, -124(%ebp)
	movl	-124(%ebp), %eax
	addl	$8, %eax
	movl	%eax, %edx
	movl	%edx, %eax
	shrl	$3, %eax
	addl	$536870912, %eax
	movzbl	(%eax), %ecx
	testb	%cl, %cl
	setne	%bl
	movl	%edx, %eax
	andl	$7, %eax
	addl	$3, %eax
	cmpb	%cl, %al
	setge	%al
	andl	%ebx, %eax
	testb	%al, %al
	je	.L394
	subl	$12, %esp
	pushl	%edx
	call	__asan_report_load4
.L394:
	movl	-124(%ebp), %eax
	movl	8(%eax), %eax
	testl	%eax, %eax
	jne	.L395
	subl	$12, %esp
	pushl	$456
	call	malloc
	addl	$16, %esp
	movl	%eax, %edx
	movl	-124(%ebp), %eax
	movl	%edx, 8(%eax)
	movl	-124(%ebp), %eax
	movl	8(%eax), %eax
	testl	%eax, %eax
	jne	.L396
	subl	$8, %esp
	pushl	$.LC125
	pushl	$2
	call	syslog
	addl	$16, %esp
	call	__asan_handle_no_return
	subl	$12, %esp
	pushl	$1
	call	exit
.L396:
	movl	-124(%ebp), %eax
	addl	$8, %eax
	movl	%eax, %edx
	movl	%edx, %eax
	shrl	$3, %eax
	addl	$536870912, %eax
	movzbl	(%eax), %ecx
	testb	%cl, %cl
	setne	%bl
	movl	%edx, %eax
	andl	$7, %eax
	addl	$3, %eax
	cmpb	%cl, %al
	setge	%al
	andl	%ebx, %eax
	testb	%al, %al
	je	.L397
	subl	$12, %esp
	pushl	%edx
	call	__asan_report_load4
.L397:
	movl	-124(%ebp), %eax
	movl	8(%eax), %esi
	movl	%esi, %eax
	movl	%eax, %ecx
	movl	%ecx, %eax
	shrl	$3, %eax
	addl	$536870912, %eax
	movzbl	(%eax), %edx
	testb	%dl, %dl
	setne	%bl
	movl	%ecx, %eax
	andl	$7, %eax
	addl	$3, %eax
	cmpb	%dl, %al
	setge	%al
	andl	%ebx, %eax
	testb	%al, %al
	je	.L398
	subl	$12, %esp
	pushl	%ecx
	call	__asan_report_store4
.L398:
	movl	$0, (%esi)
	movl	httpd_conn_count, %eax
	addl	$1, %eax
	movl	%eax, httpd_conn_count
.L395:
	movl	-124(%ebp), %eax
	addl	$8, %eax
	movl	%eax, %edx
	movl	%edx, %eax
	shrl	$3, %eax
	addl	$536870912, %eax
	movzbl	(%eax), %ecx
	testb	%cl, %cl
	setne	%bl
	movl	%edx, %eax
	andl	$7, %eax
	addl	$3, %eax
	cmpb	%cl, %al
	setge	%al
	andl	%ebx, %eax
	testb	%al, %al
	je	.L399
	subl	$12, %esp
	pushl	%edx
	call	__asan_report_load4
.L399:
	movl	-124(%ebp), %eax
	movl	8(%eax), %edx
	movl	hs, %eax
	subl	$4, %esp
	pushl	%edx
	pushl	12(%ebp)
	pushl	%eax
	call	httpd_get_conn
	addl	$16, %esp
	testl	%eax, %eax
	je	.L401
	cmpl	$2, %eax
	je	.L402
	jmp	.L418
.L401:
	subl	$12, %esp
	pushl	8(%ebp)
	call	tmr_run
	addl	$16, %esp
	movl	$0, %eax
	jmp	.L417
.L402:
	movl	$1, %eax
	jmp	.L417
.L418:
	movl	-124(%ebp), %eax
	movl	%eax, %edx
	movl	%edx, %eax
	shrl	$3, %eax
	addl	$536870912, %eax
	movzbl	(%eax), %ecx
	testb	%cl, %cl
	setne	%bl
	movl	%edx, %eax
	andl	$7, %eax
	addl	$3, %eax
	cmpb	%cl, %al
	setge	%al
	andl	%ebx, %eax
	testb	%al, %al
	je	.L403
	subl	$12, %esp
	pushl	%edx
	call	__asan_report_store4
.L403:
	movl	-124(%ebp), %eax
	movl	$1, (%eax)
	movl	-124(%ebp), %eax
	addl	$4, %eax
	movl	%eax, %edx
	movl	%edx, %eax
	shrl	$3, %eax
	addl	$536870912, %eax
	movzbl	(%eax), %ecx
	testb	%cl, %cl
	setne	%bl
	movl	%edx, %eax
	andl	$7, %eax
	addl	$3, %eax
	cmpb	%cl, %al
	setge	%al
	andl	%ebx, %eax
	testb	%al, %al
	je	.L404
	subl	$12, %esp
	pushl	%edx
	call	__asan_report_load4
.L404:
	movl	-124(%ebp), %eax
	movl	4(%eax), %eax
	movl	%eax, first_free_connect
	movl	-124(%ebp), %eax
	movl	$-1, 4(%eax)
	movl	num_connects, %eax
	addl	$1, %eax
	movl	%eax, num_connects
	movl	-124(%ebp), %eax
	movl	-144(%ebp), %esi
	movl	%eax, -64(%esi)
	movl	8(%ebp), %eax
	movl	%eax, %edx
	movl	%edx, %eax
	shrl	$3, %eax
	addl	$536870912, %eax
	movzbl	(%eax), %ecx
	testb	%cl, %cl
	setne	%bl
	movl	%edx, %eax
	andl	$7, %eax
	addl	$3, %eax
	cmpb	%cl, %al
	setge	%al
	andl	%ebx, %eax
	testb	%al, %al
	je	.L405
	subl	$12, %esp
	pushl	%edx
	call	__asan_report_load4
.L405:
	movl	8(%ebp), %eax
	movl	(%eax), %esi
	movl	-124(%ebp), %eax
	addl	$68, %eax
	movl	%eax, %ecx
	movl	%ecx, %eax
	shrl	$3, %eax
	addl	$536870912, %eax
	movzbl	(%eax), %edx
	testb	%dl, %dl
	setne	%bl
	movl	%ecx, %eax
	andl	$7, %eax
	addl	$3, %eax
	cmpb	%dl, %al
	setge	%al
	andl	%ebx, %eax
	testb	%al, %al
	je	.L406
	subl	$12, %esp
	pushl	%ecx
	call	__asan_report_store4
.L406:
	movl	-124(%ebp), %eax
	movl	%esi, 68(%eax)
	movl	-124(%ebp), %eax
	addl	$72, %eax
	movl	%eax, %edx
	movl	%edx, %eax
	shrl	$3, %eax
	addl	$536870912, %eax
	movzbl	(%eax), %ecx
	testb	%cl, %cl
	setne	%bl
	movl	%edx, %eax
	andl	$7, %eax
	addl	$3, %eax
	cmpb	%cl, %al
	setge	%al
	andl	%ebx, %eax
	testb	%al, %al
	je	.L407
	subl	$12, %esp
	pushl	%edx
	call	__asan_report_store4
.L407:
	movl	-124(%ebp), %eax
	movl	$0, 72(%eax)
	movl	-124(%ebp), %eax
	addl	$76, %eax
	movl	%eax, %edx
	movl	%edx, %eax
	shrl	$3, %eax
	addl	$536870912, %eax
	movzbl	(%eax), %ecx
	testb	%cl, %cl
	setne	%bl
	movl	%edx, %eax
	andl	$7, %eax
	addl	$3, %eax
	cmpb	%cl, %al
	setge	%al
	andl	%ebx, %eax
	testb	%al, %al
	je	.L408
	subl	$12, %esp
	pushl	%edx
	call	__asan_report_store4
.L408:
	movl	-124(%ebp), %eax
	movl	$0, 76(%eax)
	movl	-124(%ebp), %eax
	addl	$92, %eax
	movl	%eax, %edx
	movl	%edx, %eax
	shrl	$3, %eax
	addl	$536870912, %eax
	movzbl	(%eax), %ecx
	testb	%cl, %cl
	setne	%bl
	movl	%edx, %eax
	andl	$7, %eax
	addl	$3, %eax
	cmpb	%cl, %al
	setge	%al
	andl	%ebx, %eax
	testb	%al, %al
	je	.L409
	subl	$12, %esp
	pushl	%edx
	call	__asan_report_store4
.L409:
	movl	-124(%ebp), %eax
	movl	$0, 92(%eax)
	movl	-124(%ebp), %eax
	addl	$52, %eax
	movl	%eax, %edx
	movl	%edx, %eax
	shrl	$3, %eax
	addl	$536870912, %eax
	movzbl	(%eax), %ecx
	testb	%cl, %cl
	setne	%bl
	movl	%edx, %eax
	andl	$7, %eax
	addl	$3, %eax
	cmpb	%cl, %al
	setge	%al
	andl	%ebx, %eax
	testb	%al, %al
	je	.L410
	subl	$12, %esp
	pushl	%edx
	call	__asan_report_store4
.L410:
	movl	-124(%ebp), %eax
	movl	$0, 52(%eax)
	movl	-124(%ebp), %eax
	addl	$8, %eax
	movl	%eax, %edx
	movl	%edx, %eax
	shrl	$3, %eax
	addl	$536870912, %eax
	movzbl	(%eax), %ecx
	testb	%cl, %cl
	setne	%bl
	movl	%edx, %eax
	andl	$7, %eax
	addl	$3, %eax
	cmpb	%cl, %al
	setge	%al
	andl	%ebx, %eax
	testb	%al, %al
	je	.L411
	subl	$12, %esp
	pushl	%edx
	call	__asan_report_load4
.L411:
	movl	-124(%ebp), %eax
	movl	8(%eax), %ebx
	leal	448(%ebx), %eax
	movl	%eax, %ecx
	movl	%ecx, %eax
	shrl	$3, %eax
	addl	$536870912, %eax
	movzbl	(%eax), %edx
	testb	%dl, %dl
	setne	%al
	movl	%eax, %esi
	movl	%ecx, %eax
	andl	$7, %eax
	addl	$3, %eax
	cmpb	%dl, %al
	setge	%al
	andl	%esi, %eax
	testb	%al, %al
	je	.L412
	subl	$12, %esp
	pushl	%ecx
	call	__asan_report_load4
.L412:
	movl	448(%ebx), %eax
	subl	$12, %esp
	pushl	%eax
	call	httpd_set_ndelay
	addl	$16, %esp
	movl	-124(%ebp), %eax
	addl	$8, %eax
	movl	%eax, %edx
	movl	%edx, %eax
	shrl	$3, %eax
	addl	$536870912, %eax
	movzbl	(%eax), %ecx
	testb	%cl, %cl
	setne	%bl
	movl	%edx, %eax
	andl	$7, %eax
	addl	$3, %eax
	cmpb	%cl, %al
	setge	%al
	andl	%ebx, %eax
	testb	%al, %al
	je	.L413
	subl	$12, %esp
	pushl	%edx
	call	__asan_report_load4
.L413:
	movl	-124(%ebp), %eax
	movl	8(%eax), %ebx
	leal	448(%ebx), %eax
	movl	%eax, %ecx
	movl	%ecx, %eax
	shrl	$3, %eax
	addl	$536870912, %eax
	movzbl	(%eax), %edx
	testb	%dl, %dl
	setne	%al
	movl	%eax, %esi
	movl	%ecx, %eax
	andl	$7, %eax
	addl	$3, %eax
	cmpb	%dl, %al
	setge	%al
	andl	%esi, %eax
	testb	%al, %al
	je	.L414
	subl	$12, %esp
	pushl	%ecx
	call	__asan_report_load4
.L414:
	movl	448(%ebx), %eax
	subl	$4, %esp
	pushl	$0
	pushl	-124(%ebp)
	pushl	%eax
	call	fdwatch_add_fd
	addl	$16, %esp
	movl	stats_connections, %eax
	addl	$1, %eax
	movl	%eax, stats_connections
	movl	num_connects, %edx
	movl	stats_simultaneous, %eax
	cmpl	%eax, %edx
	jle	.L415
	movl	num_connects, %eax
	movl	%eax, stats_simultaneous
.L415:
	jmp	.L416
.L417:
	movl	-140(%ebp), %ebx
	cmpl	%ebx, -148(%ebp)
	je	.L386
	movl	-140(%ebp), %esi
	movl	$1172321806, (%esi)
	movl	$-168430091, 536870912(%edi)
	movl	$-168430091, 536870916(%edi)
	movl	$-168430091, 536870920(%edi)
	jmp	.L387
.L386:
	movl	$0, 536870912(%edi)
	movl	$0, 536870916(%edi)
	movl	$0, 536870920(%edi)
.L387:
	leal	-12(%ebp), %esp
	popl	%ebx
	.cfi_restore 3
	popl	%esi
	.cfi_restore 6
	popl	%edi
	.cfi_restore 7
	popl	%ebp
	.cfi_restore 5
	.cfi_def_cfa 4, 4
	ret
	.cfi_endproc
.LFE17:
	.size	handle_newconnect, .-handle_newconnect
	.type	handle_read, @function
handle_read:
.LASANPC18:
.LFB18:
	.cfi_startproc
	pushl	%ebp
	.cfi_def_cfa_offset 8
	.cfi_offset 5, -8
	movl	%esp, %ebp
	.cfi_def_cfa_register 5
	pushl	%edi
	pushl	%esi
	pushl	%ebx
	subl	$140, %esp
	.cfi_offset 7, -12
	.cfi_offset 6, -16
	.cfi_offset 3, -20
	leal	-120(%ebp), %eax
	movl	%eax, -140(%ebp)
	movl	%eax, -152(%ebp)
	cmpl	$0, __asan_option_detect_stack_use_after_return
	je	.L419
	subl	$8, %esp
	pushl	-140(%ebp)
	pushl	$96
	call	__asan_stack_malloc_1
	addl	$16, %esp
	movl	%eax, -140(%ebp)
.L419:
	movl	-140(%ebp), %edi
	movl	%edi, %eax
	addl	$96, %eax
	movl	%eax, -148(%ebp)
	movl	%edi, %eax
	movl	$1102416563, (%eax)
	movl	%edi, %eax
	movl	$.LC122, 4(%eax)
	movl	$.LASANPC18, 8(%eax)
	shrl	$3, %eax
	movl	%eax, -144(%ebp)
	movl	$-235802127, 536870912(%eax)
	movl	$-185273340, 536870916(%eax)
	movl	$-202116109, 536870920(%eax)
	movl	8(%ebp), %eax
	addl	$8, %eax
	movl	%eax, %edx
	movl	%edx, %eax
	shrl	$3, %eax
	addl	$536870912, %eax
	movzbl	(%eax), %ecx
	testb	%cl, %cl
	setne	%bl
	movl	%edx, %eax
	andl	$7, %eax
	addl	$3, %eax
	cmpb	%cl, %al
	setge	%al
	andl	%ebx, %eax
	testb	%al, %al
	je	.L423
	subl	$12, %esp
	pushl	%edx
	call	__asan_report_load4
.L423:
	movl	8(%ebp), %eax
	movl	8(%eax), %eax
	movl	%eax, -128(%ebp)
	movl	-128(%ebp), %eax
	addl	$144, %eax
	movl	%eax, %edx
	movl	%edx, %eax
	shrl	$3, %eax
	addl	$536870912, %eax
	movzbl	(%eax), %ecx
	testb	%cl, %cl
	setne	%bl
	movl	%edx, %eax
	andl	$7, %eax
	addl	$3, %eax
	cmpb	%cl, %al
	setge	%al
	andl	%ebx, %eax
	testb	%al, %al
	je	.L424
	subl	$12, %esp
	pushl	%edx
	call	__asan_report_load4
.L424:
	movl	-128(%ebp), %eax
	movl	144(%eax), %esi
	movl	-128(%ebp), %eax
	addl	$140, %eax
	movl	%eax, %ecx
	movl	%ecx, %eax
	shrl	$3, %eax
	addl	$536870912, %eax
	movzbl	(%eax), %edx
	testb	%dl, %dl
	setne	%bl
	movl	%ecx, %eax
	andl	$7, %eax
	addl	$3, %eax
	cmpb	%dl, %al
	setge	%al
	andl	%ebx, %eax
	testb	%al, %al
	je	.L425
	subl	$12, %esp
	pushl	%ecx
	call	__asan_report_load4
.L425:
	movl	-128(%ebp), %eax
	movl	140(%eax), %eax
	cmpl	%eax, %esi
	jb	.L426
	movl	-128(%ebp), %eax
	movl	140(%eax), %eax
	cmpl	$5000, %eax
	jbe	.L427
	movl	$httpd_err400form, %eax
	movl	%eax, %edx
	movl	%edx, %eax
	shrl	$3, %eax
	addl	$536870912, %eax
	movzbl	(%eax), %ecx
	testb	%cl, %cl
	setne	%bl
	movl	%edx, %eax
	andl	$7, %eax
	addl	$3, %eax
	cmpb	%cl, %al
	setge	%al
	andl	%ebx, %eax
	testb	%al, %al
	je	.L428
	subl	$12, %esp
	pushl	%edx
	call	__asan_report_load4
.L428:
	movl	httpd_err400form, %ebx
	movl	$httpd_err400title, %eax
	movl	%eax, %edx
	movl	%edx, %eax
	shrl	$3, %eax
	addl	$536870912, %eax
	movzbl	(%eax), %ecx
	testb	%cl, %cl
	setne	%al
	movl	%eax, %esi
	movl	%edx, %eax
	andl	$7, %eax
	addl	$3, %eax
	cmpb	%cl, %al
	setge	%al
	andl	%esi, %eax
	testb	%al, %al
	je	.L429
	subl	$12, %esp
	pushl	%edx
	call	__asan_report_load4
.L429:
	movl	httpd_err400title, %eax
	subl	$8, %esp
	pushl	$.LC48
	pushl	%ebx
	pushl	$.LC48
	pushl	%eax
	pushl	$400
	pushl	-128(%ebp)
	call	httpd_send_err
	addl	$32, %esp
	subl	$8, %esp
	pushl	12(%ebp)
	pushl	8(%ebp)
	call	finish_connection
	addl	$16, %esp
	jmp	.L422
.L427:
	movl	-128(%ebp), %eax
	addl	$140, %eax
	movl	%eax, %edx
	movl	%edx, %eax
	shrl	$3, %eax
	addl	$536870912, %eax
	movzbl	(%eax), %ecx
	testb	%cl, %cl
	setne	%bl
	movl	%edx, %eax
	andl	$7, %eax
	addl	$3, %eax
	cmpb	%cl, %al
	setge	%al
	andl	%ebx, %eax
	testb	%al, %al
	je	.L431
	subl	$12, %esp
	pushl	%edx
	call	__asan_report_load4
.L431:
	movl	-128(%ebp), %eax
	movl	140(%eax), %eax
	leal	1000(%eax), %ecx
	movl	-128(%ebp), %eax
	leal	140(%eax), %edx
	movl	-128(%ebp), %eax
	addl	$136, %eax
	subl	$4, %esp
	pushl	%ecx
	pushl	%edx
	pushl	%eax
	call	httpd_realloc_str
	addl	$16, %esp
.L426:
	movl	-128(%ebp), %eax
	addl	$140, %eax
	movl	%eax, %edx
	movl	%edx, %eax
	shrl	$3, %eax
	addl	$536870912, %eax
	movzbl	(%eax), %ecx
	testb	%cl, %cl
	setne	%bl
	movl	%edx, %eax
	andl	$7, %eax
	addl	$3, %eax
	cmpb	%cl, %al
	setge	%al
	andl	%ebx, %eax
	testb	%al, %al
	je	.L432
	subl	$12, %esp
	pushl	%edx
	call	__asan_report_load4
.L432:
	movl	-128(%ebp), %eax
	movl	140(%eax), %edi
	movl	-128(%ebp), %eax
	addl	$136, %eax
	movl	%eax, %ecx
	movl	%ecx, %eax
	shrl	$3, %eax
	addl	$536870912, %eax
	movzbl	(%eax), %edx
	testb	%dl, %dl
	setne	%bl
	movl	%ecx, %eax
	andl	$7, %eax
	addl	$3, %eax
	cmpb	%dl, %al
	setge	%al
	andl	%ebx, %eax
	testb	%al, %al
	je	.L433
	subl	$12, %esp
	pushl	%ecx
	call	__asan_report_load4
.L433:
	movl	-128(%ebp), %eax
	movl	136(%eax), %esi
	movl	-128(%ebp), %eax
	addl	$144, %eax
	movl	%eax, %ecx
	movl	%ecx, %eax
	shrl	$3, %eax
	addl	$536870912, %eax
	movzbl	(%eax), %edx
	testb	%dl, %dl
	setne	%bl
	movl	%ecx, %eax
	andl	$7, %eax
	addl	$3, %eax
	cmpb	%dl, %al
	setge	%al
	andl	%ebx, %eax
	testb	%al, %al
	je	.L434
	subl	$12, %esp
	pushl	%ecx
	call	__asan_report_load4
.L434:
	movl	-128(%ebp), %eax
	movl	144(%eax), %eax
	addl	%eax, %esi
	movl	-128(%ebp), %eax
	addl	$448, %eax
	movl	%eax, %ecx
	movl	%ecx, %eax
	shrl	$3, %eax
	addl	$536870912, %eax
	movzbl	(%eax), %edx
	testb	%dl, %dl
	setne	%bl
	movl	%ecx, %eax
	andl	$7, %eax
	addl	$3, %eax
	cmpb	%dl, %al
	setge	%al
	andl	%ebx, %eax
	testb	%al, %al
	je	.L435
	subl	$12, %esp
	pushl	%ecx
	call	__asan_report_load4
.L435:
	movl	-128(%ebp), %eax
	movl	448(%eax), %eax
	subl	$4, %esp
	pushl	%edi
	pushl	%esi
	pushl	%eax
	call	read
	addl	$16, %esp
	movl	%eax, -124(%ebp)
	cmpl	$0, -124(%ebp)
	jne	.L436
	movl	$httpd_err400form, %eax
	movl	%eax, %edx
	movl	%edx, %eax
	shrl	$3, %eax
	addl	$536870912, %eax
	movzbl	(%eax), %ecx
	testb	%cl, %cl
	setne	%bl
	movl	%edx, %eax
	andl	$7, %eax
	addl	$3, %eax
	cmpb	%cl, %al
	setge	%al
	andl	%ebx, %eax
	testb	%al, %al
	je	.L437
	subl	$12, %esp
	pushl	%edx
	call	__asan_report_load4
.L437:
	movl	httpd_err400form, %ebx
	movl	$httpd_err400title, %eax
	movl	%eax, %edx
	movl	%edx, %eax
	shrl	$3, %eax
	addl	$536870912, %eax
	movzbl	(%eax), %ecx
	testb	%cl, %cl
	setne	%al
	movl	%eax, %esi
	movl	%edx, %eax
	andl	$7, %eax
	addl	$3, %eax
	cmpb	%cl, %al
	setge	%al
	andl	%esi, %eax
	testb	%al, %al
	je	.L438
	subl	$12, %esp
	pushl	%edx
	call	__asan_report_load4
.L438:
	movl	httpd_err400title, %eax
	subl	$8, %esp
	pushl	$.LC48
	pushl	%ebx
	pushl	$.LC48
	pushl	%eax
	pushl	$400
	pushl	-128(%ebp)
	call	httpd_send_err
	addl	$32, %esp
	subl	$8, %esp
	pushl	12(%ebp)
	pushl	8(%ebp)
	call	finish_connection
	addl	$16, %esp
	jmp	.L422
.L436:
	cmpl	$0, -124(%ebp)
	jns	.L439
	call	__errno_location
	movl	%eax, %ebx
	movl	%ebx, %edx
	movl	%edx, %eax
	shrl	$3, %eax
	addl	$536870912, %eax
	movzbl	(%eax), %ecx
	testb	%cl, %cl
	setne	%al
	movl	%eax, %esi
	movl	%edx, %eax
	andl	$7, %eax
	addl	$3, %eax
	cmpb	%cl, %al
	setge	%al
	andl	%esi, %eax
	testb	%al, %al
	je	.L440
	subl	$12, %esp
	pushl	%edx
	call	__asan_report_load4
.L440:
	movl	(%ebx), %eax
	cmpl	$4, %eax
	je	.L441
	call	__errno_location
	movl	%eax, %ebx
	movl	%ebx, %edx
	movl	%edx, %eax
	shrl	$3, %eax
	addl	$536870912, %eax
	movzbl	(%eax), %ecx
	testb	%cl, %cl
	setne	%al
	movl	%eax, %esi
	movl	%edx, %eax
	andl	$7, %eax
	addl	$3, %eax
	cmpb	%cl, %al
	setge	%al
	andl	%esi, %eax
	testb	%al, %al
	je	.L442
	subl	$12, %esp
	pushl	%edx
	call	__asan_report_load4
.L442:
	movl	(%ebx), %eax
	cmpl	$11, %eax
	je	.L441
	call	__errno_location
	movl	%eax, %ebx
	movl	%ebx, %edx
	movl	%edx, %eax
	shrl	$3, %eax
	addl	$536870912, %eax
	movzbl	(%eax), %ecx
	testb	%cl, %cl
	setne	%al
	movl	%eax, %esi
	movl	%edx, %eax
	andl	$7, %eax
	addl	$3, %eax
	cmpb	%cl, %al
	setge	%al
	andl	%esi, %eax
	testb	%al, %al
	je	.L443
	subl	$12, %esp
	pushl	%edx
	call	__asan_report_load4
.L443:
	movl	(%ebx), %eax
	cmpl	$11, %eax
	jne	.L444
.L441:
	jmp	.L422
.L444:
	movl	$httpd_err400form, %eax
	movl	%eax, %edx
	movl	%edx, %eax
	shrl	$3, %eax
	addl	$536870912, %eax
	movzbl	(%eax), %ecx
	testb	%cl, %cl
	setne	%bl
	movl	%edx, %eax
	andl	$7, %eax
	addl	$3, %eax
	cmpb	%cl, %al
	setge	%al
	andl	%ebx, %eax
	testb	%al, %al
	je	.L445
	subl	$12, %esp
	pushl	%edx
	call	__asan_report_load4
.L445:
	movl	httpd_err400form, %ebx
	movl	$httpd_err400title, %eax
	movl	%eax, %edx
	movl	%edx, %eax
	shrl	$3, %eax
	addl	$536870912, %eax
	movzbl	(%eax), %ecx
	testb	%cl, %cl
	setne	%al
	movl	%eax, %esi
	movl	%edx, %eax
	andl	$7, %eax
	addl	$3, %eax
	cmpb	%cl, %al
	setge	%al
	andl	%esi, %eax
	testb	%al, %al
	je	.L446
	subl	$12, %esp
	pushl	%edx
	call	__asan_report_load4
.L446:
	movl	httpd_err400title, %eax
	subl	$8, %esp
	pushl	$.LC48
	pushl	%ebx
	pushl	$.LC48
	pushl	%eax
	pushl	$400
	pushl	-128(%ebp)
	call	httpd_send_err
	addl	$32, %esp
	subl	$8, %esp
	pushl	12(%ebp)
	pushl	8(%ebp)
	call	finish_connection
	addl	$16, %esp
	jmp	.L422
.L439:
	movl	-128(%ebp), %eax
	addl	$144, %eax
	movl	%eax, %edx
	movl	%edx, %eax
	shrl	$3, %eax
	addl	$536870912, %eax
	movzbl	(%eax), %ecx
	testb	%cl, %cl
	setne	%bl
	movl	%edx, %eax
	andl	$7, %eax
	addl	$3, %eax
	cmpb	%cl, %al
	setge	%al
	andl	%ebx, %eax
	testb	%al, %al
	je	.L447
	subl	$12, %esp
	pushl	%edx
	call	__asan_report_load4
.L447:
	movl	-128(%ebp), %eax
	movl	144(%eax), %edx
	movl	-124(%ebp), %eax
	addl	%eax, %edx
	movl	-128(%ebp), %eax
	movl	%edx, 144(%eax)
	movl	12(%ebp), %eax
	movl	%eax, %edx
	movl	%edx, %eax
	shrl	$3, %eax
	addl	$536870912, %eax
	movzbl	(%eax), %ecx
	testb	%cl, %cl
	setne	%bl
	movl	%edx, %eax
	andl	$7, %eax
	addl	$3, %eax
	cmpb	%cl, %al
	setge	%al
	andl	%ebx, %eax
	testb	%al, %al
	je	.L448
	subl	$12, %esp
	pushl	%edx
	call	__asan_report_load4
.L448:
	movl	12(%ebp), %eax
	movl	(%eax), %esi
	movl	8(%ebp), %eax
	addl	$68, %eax
	movl	%eax, %ecx
	movl	%ecx, %eax
	shrl	$3, %eax
	addl	$536870912, %eax
	movzbl	(%eax), %edx
	testb	%dl, %dl
	setne	%bl
	movl	%ecx, %eax
	andl	$7, %eax
	addl	$3, %eax
	cmpb	%dl, %al
	setge	%al
	andl	%ebx, %eax
	testb	%al, %al
	je	.L449
	subl	$12, %esp
	pushl	%ecx
	call	__asan_report_store4
.L449:
	movl	8(%ebp), %eax
	movl	%esi, 68(%eax)
	subl	$12, %esp
	pushl	-128(%ebp)
	call	httpd_got_request
	addl	$16, %esp
	testl	%eax, %eax
	je	.L495
	cmpl	$2, %eax
	jne	.L494
	movl	$httpd_err400form, %eax
	movl	%eax, %edx
	movl	%edx, %eax
	shrl	$3, %eax
	addl	$536870912, %eax
	movzbl	(%eax), %ecx
	testb	%cl, %cl
	setne	%bl
	movl	%edx, %eax
	andl	$7, %eax
	addl	$3, %eax
	cmpb	%cl, %al
	setge	%al
	andl	%ebx, %eax
	testb	%al, %al
	je	.L453
	subl	$12, %esp
	pushl	%edx
	call	__asan_report_load4
.L453:
	movl	httpd_err400form, %ebx
	movl	$httpd_err400title, %eax
	movl	%eax, %edx
	movl	%edx, %eax
	shrl	$3, %eax
	addl	$536870912, %eax
	movzbl	(%eax), %ecx
	testb	%cl, %cl
	setne	%al
	movl	%eax, %esi
	movl	%edx, %eax
	andl	$7, %eax
	addl	$3, %eax
	cmpb	%cl, %al
	setge	%al
	andl	%esi, %eax
	testb	%al, %al
	je	.L454
	subl	$12, %esp
	pushl	%edx
	call	__asan_report_load4
.L454:
	movl	httpd_err400title, %eax
	subl	$8, %esp
	pushl	$.LC48
	pushl	%ebx
	pushl	$.LC48
	pushl	%eax
	pushl	$400
	pushl	-128(%ebp)
	call	httpd_send_err
	addl	$32, %esp
	subl	$8, %esp
	pushl	12(%ebp)
	pushl	8(%ebp)
	call	finish_connection
	addl	$16, %esp
	jmp	.L422
.L494:
	subl	$12, %esp
	pushl	-128(%ebp)
	call	httpd_parse_request
	addl	$16, %esp
	testl	%eax, %eax
	jns	.L455
	subl	$8, %esp
	pushl	12(%ebp)
	pushl	8(%ebp)
	call	finish_connection
	addl	$16, %esp
	jmp	.L422
.L455:
	subl	$12, %esp
	pushl	8(%ebp)
	call	check_throttles
	addl	$16, %esp
	testl	%eax, %eax
	jne	.L456
	movl	-128(%ebp), %eax
	addl	$172, %eax
	movl	%eax, %edx
	movl	%edx, %eax
	shrl	$3, %eax
	addl	$536870912, %eax
	movzbl	(%eax), %ecx
	testb	%cl, %cl
	setne	%bl
	movl	%edx, %eax
	andl	$7, %eax
	addl	$3, %eax
	cmpb	%cl, %al
	setge	%al
	andl	%ebx, %eax
	testb	%al, %al
	je	.L457
	subl	$12, %esp
	pushl	%edx
	call	__asan_report_load4
.L457:
	movl	-128(%ebp), %eax
	movl	172(%eax), %edi
	movl	$httpd_err503form, %eax
	movl	%eax, %edx
	movl	%edx, %eax
	shrl	$3, %eax
	addl	$536870912, %eax
	movzbl	(%eax), %ecx
	testb	%cl, %cl
	setne	%bl
	movl	%edx, %eax
	andl	$7, %eax
	addl	$3, %eax
	cmpb	%cl, %al
	setge	%al
	andl	%ebx, %eax
	testb	%al, %al
	je	.L458
	subl	$12, %esp
	pushl	%edx
	call	__asan_report_load4
.L458:
	movl	httpd_err503form, %esi
	movl	$httpd_err503title, %eax
	movl	%eax, %ecx
	movl	%ecx, %eax
	shrl	$3, %eax
	addl	$536870912, %eax
	movzbl	(%eax), %edx
	testb	%dl, %dl
	setne	%bl
	movl	%ecx, %eax
	andl	$7, %eax
	addl	$3, %eax
	cmpb	%dl, %al
	setge	%al
	andl	%ebx, %eax
	testb	%al, %al
	je	.L459
	subl	$12, %esp
	pushl	%ecx
	call	__asan_report_load4
.L459:
	movl	httpd_err503title, %eax
	subl	$8, %esp
	pushl	%edi
	pushl	%esi
	pushl	$.LC48
	pushl	%eax
	pushl	$503
	pushl	-128(%ebp)
	call	httpd_send_err
	addl	$32, %esp
	subl	$8, %esp
	pushl	12(%ebp)
	pushl	8(%ebp)
	call	finish_connection
	addl	$16, %esp
	jmp	.L422
.L456:
	subl	$8, %esp
	pushl	12(%ebp)
	pushl	-128(%ebp)
	call	httpd_start_request
	addl	$16, %esp
	testl	%eax, %eax
	jns	.L460
	subl	$8, %esp
	pushl	12(%ebp)
	pushl	8(%ebp)
	call	finish_connection
	addl	$16, %esp
	jmp	.L422
.L460:
	movl	-128(%ebp), %eax
	addl	$336, %eax
	movl	%eax, %edx
	movl	%edx, %eax
	shrl	$3, %eax
	addl	$536870912, %eax
	movzbl	(%eax), %ecx
	testb	%cl, %cl
	setne	%bl
	movl	%edx, %eax
	andl	$7, %eax
	addl	$3, %eax
	cmpb	%cl, %al
	setge	%al
	andl	%ebx, %eax
	testb	%al, %al
	je	.L461
	subl	$12, %esp
	pushl	%edx
	call	__asan_report_load4
.L461:
	movl	-128(%ebp), %eax
	movl	336(%eax), %eax
	testl	%eax, %eax
	je	.L462
	movl	-128(%ebp), %eax
	addl	$344, %eax
	movl	%eax, %edx
	movl	%edx, %eax
	shrl	$3, %eax
	addl	$536870912, %eax
	movzbl	(%eax), %ecx
	testb	%cl, %cl
	setne	%bl
	movl	%edx, %eax
	andl	$7, %eax
	addl	$3, %eax
	cmpb	%cl, %al
	setge	%al
	andl	%ebx, %eax
	testb	%al, %al
	je	.L463
	subl	$12, %esp
	pushl	%edx
	call	__asan_report_load4
.L463:
	movl	-128(%ebp), %eax
	movl	344(%eax), %esi
	movl	8(%ebp), %eax
	addl	$92, %eax
	movl	%eax, %ecx
	movl	%ecx, %eax
	shrl	$3, %eax
	addl	$536870912, %eax
	movzbl	(%eax), %edx
	testb	%dl, %dl
	setne	%bl
	movl	%ecx, %eax
	andl	$7, %eax
	addl	$3, %eax
	cmpb	%dl, %al
	setge	%al
	andl	%ebx, %eax
	testb	%al, %al
	je	.L464
	subl	$12, %esp
	pushl	%ecx
	call	__asan_report_store4
.L464:
	movl	8(%ebp), %eax
	movl	%esi, 92(%eax)
	movl	-128(%ebp), %eax
	addl	$348, %eax
	movl	%eax, %edx
	movl	%edx, %eax
	shrl	$3, %eax
	addl	$536870912, %eax
	movzbl	(%eax), %ecx
	testb	%cl, %cl
	setne	%bl
	movl	%edx, %eax
	andl	$7, %eax
	addl	$3, %eax
	cmpb	%cl, %al
	setge	%al
	andl	%ebx, %eax
	testb	%al, %al
	je	.L465
	subl	$12, %esp
	pushl	%edx
	call	__asan_report_load4
.L465:
	movl	-128(%ebp), %eax
	movl	348(%eax), %eax
	leal	1(%eax), %esi
	movl	8(%ebp), %eax
	addl	$88, %eax
	movl	%eax, %ecx
	movl	%ecx, %eax
	shrl	$3, %eax
	addl	$536870912, %eax
	movzbl	(%eax), %edx
	testb	%dl, %dl
	setne	%bl
	movl	%ecx, %eax
	andl	$7, %eax
	addl	$3, %eax
	cmpb	%dl, %al
	setge	%al
	andl	%ebx, %eax
	testb	%al, %al
	je	.L466
	subl	$12, %esp
	pushl	%ecx
	call	__asan_report_store4
.L466:
	movl	8(%ebp), %eax
	movl	%esi, 88(%eax)
	jmp	.L467
.L462:
	movl	-128(%ebp), %eax
	addl	$164, %eax
	movl	%eax, %edx
	movl	%edx, %eax
	shrl	$3, %eax
	addl	$536870912, %eax
	movzbl	(%eax), %ecx
	testb	%cl, %cl
	setne	%bl
	movl	%edx, %eax
	andl	$7, %eax
	addl	$3, %eax
	cmpb	%cl, %al
	setge	%al
	andl	%ebx, %eax
	testb	%al, %al
	je	.L468
	subl	$12, %esp
	pushl	%edx
	call	__asan_report_load4
.L468:
	movl	-128(%ebp), %eax
	movl	164(%eax), %eax
	testl	%eax, %eax
	jns	.L469
	movl	8(%ebp), %eax
	addl	$88, %eax
	movl	%eax, %edx
	movl	%edx, %eax
	shrl	$3, %eax
	addl	$536870912, %eax
	movzbl	(%eax), %ecx
	testb	%cl, %cl
	setne	%bl
	movl	%edx, %eax
	andl	$7, %eax
	addl	$3, %eax
	cmpb	%cl, %al
	setge	%al
	andl	%ebx, %eax
	testb	%al, %al
	je	.L470
	subl	$12, %esp
	pushl	%edx
	call	__asan_report_store4
.L470:
	movl	8(%ebp), %eax
	movl	$0, 88(%eax)
	jmp	.L467
.L469:
	movl	-128(%ebp), %eax
	addl	$164, %eax
	movl	%eax, %edx
	movl	%edx, %eax
	shrl	$3, %eax
	addl	$536870912, %eax
	movzbl	(%eax), %ecx
	testb	%cl, %cl
	setne	%bl
	movl	%edx, %eax
	andl	$7, %eax
	addl	$3, %eax
	cmpb	%cl, %al
	setge	%al
	andl	%ebx, %eax
	testb	%al, %al
	je	.L471
	subl	$12, %esp
	pushl	%edx
	call	__asan_report_load4
.L471:
	movl	-128(%ebp), %eax
	movl	164(%eax), %esi
	movl	8(%ebp), %eax
	addl	$88, %eax
	movl	%eax, %ecx
	movl	%ecx, %eax
	shrl	$3, %eax
	addl	$536870912, %eax
	movzbl	(%eax), %edx
	testb	%dl, %dl
	setne	%bl
	movl	%ecx, %eax
	andl	$7, %eax
	addl	$3, %eax
	cmpb	%dl, %al
	setge	%al
	andl	%ebx, %eax
	testb	%al, %al
	je	.L472
	subl	$12, %esp
	pushl	%ecx
	call	__asan_report_store4
.L472:
	movl	8(%ebp), %eax
	movl	%esi, 88(%eax)
.L467:
	movl	-128(%ebp), %eax
	addl	$452, %eax
	movl	%eax, %edx
	movl	%edx, %eax
	shrl	$3, %eax
	addl	$536870912, %eax
	movzbl	(%eax), %ecx
	testb	%cl, %cl
	setne	%bl
	movl	%edx, %eax
	andl	$7, %eax
	addl	$3, %eax
	cmpb	%cl, %al
	setge	%al
	andl	%ebx, %eax
	testb	%al, %al
	je	.L473
	subl	$12, %esp
	pushl	%edx
	call	__asan_report_load4
.L473:
	movl	-128(%ebp), %eax
	movl	452(%eax), %eax
	testl	%eax, %eax
	jne	.L474
	movl	$0, -132(%ebp)
	jmp	.L475
.L481:
	movl	throttles, %ebx
	movl	-132(%ebp), %eax
	leal	0(,%eax,4), %edx
	movl	8(%ebp), %eax
	addl	%edx, %eax
	addl	$12, %eax
	movl	%eax, %edx
	movl	%edx, %eax
	shrl	$3, %eax
	addl	$536870912, %eax
	movzbl	(%eax), %ecx
	testb	%cl, %cl
	setne	%al
	movl	%eax, %esi
	movl	%edx, %eax
	andl	$7, %eax
	addl	$3, %eax
	cmpb	%cl, %al
	setge	%al
	andl	%esi, %eax
	testb	%al, %al
	je	.L476
	subl	$12, %esp
	pushl	%edx
	call	__asan_report_load4
.L476:
	movl	8(%ebp), %eax
	movl	-132(%ebp), %edx
	movl	12(%eax,%edx,4), %eax
	movl	%eax, %edx
	movl	%edx, %eax
	addl	%eax, %eax
	addl	%edx, %eax
	sall	$3, %eax
	leal	(%ebx,%eax), %edi
	movl	throttles, %ecx
	movl	8(%ebp), %eax
	movl	-132(%ebp), %edx
	movl	12(%eax,%edx,4), %eax
	movl	%eax, %edx
	movl	%edx, %eax
	addl	%eax, %eax
	addl	%edx, %eax
	sall	$3, %eax
	leal	(%ecx,%eax), %esi
	leal	16(%esi), %eax
	movl	%eax, %ecx
	movl	%ecx, %eax
	shrl	$3, %eax
	addl	$536870912, %eax
	movzbl	(%eax), %edx
	testb	%dl, %dl
	setne	%bl
	movl	%ecx, %eax
	andl	$7, %eax
	addl	$3, %eax
	cmpb	%dl, %al
	setge	%al
	andl	%ebx, %eax
	testb	%al, %al
	je	.L477
	subl	$12, %esp
	pushl	%ecx
	call	__asan_report_load4
.L477:
	movl	16(%esi), %esi
	movl	-128(%ebp), %eax
	addl	$168, %eax
	movl	%eax, %ecx
	movl	%ecx, %eax
	shrl	$3, %eax
	addl	$536870912, %eax
	movzbl	(%eax), %edx
	testb	%dl, %dl
	setne	%bl
	movl	%ecx, %eax
	andl	$7, %eax
	addl	$3, %eax
	cmpb	%dl, %al
	setge	%al
	andl	%ebx, %eax
	testb	%al, %al
	je	.L478
	subl	$12, %esp
	pushl	%ecx
	call	__asan_report_load4
.L478:
	movl	-128(%ebp), %eax
	movl	168(%eax), %eax
	addl	%eax, %esi
	leal	16(%edi), %eax
	movl	%eax, %ecx
	movl	%ecx, %eax
	shrl	$3, %eax
	addl	$536870912, %eax
	movzbl	(%eax), %edx
	testb	%dl, %dl
	setne	%bl
	movl	%ecx, %eax
	andl	$7, %eax
	addl	$3, %eax
	cmpb	%dl, %al
	setge	%al
	andl	%ebx, %eax
	testb	%al, %al
	je	.L479
	subl	$12, %esp
	pushl	%ecx
	call	__asan_report_store4
.L479:
	movl	%esi, 16(%edi)
	addl	$1, -132(%ebp)
.L475:
	movl	8(%ebp), %eax
	addl	$52, %eax
	movl	%eax, %edx
	movl	%edx, %eax
	shrl	$3, %eax
	addl	$536870912, %eax
	movzbl	(%eax), %ecx
	testb	%cl, %cl
	setne	%bl
	movl	%edx, %eax
	andl	$7, %eax
	addl	$3, %eax
	cmpb	%cl, %al
	setge	%al
	andl	%ebx, %eax
	testb	%al, %al
	je	.L480
	subl	$12, %esp
	pushl	%edx
	call	__asan_report_load4
.L480:
	movl	8(%ebp), %eax
	movl	52(%eax), %eax
	cmpl	-132(%ebp), %eax
	jg	.L481
	movl	-128(%ebp), %eax
	addl	$168, %eax
	movl	%eax, %edx
	movl	%edx, %eax
	shrl	$3, %eax
	addl	$536870912, %eax
	movzbl	(%eax), %ecx
	testb	%cl, %cl
	setne	%bl
	movl	%edx, %eax
	andl	$7, %eax
	addl	$3, %eax
	cmpb	%cl, %al
	setge	%al
	andl	%ebx, %eax
	testb	%al, %al
	je	.L482
	subl	$12, %esp
	pushl	%edx
	call	__asan_report_load4
.L482:
	movl	-128(%ebp), %eax
	movl	168(%eax), %ebx
	movl	8(%ebp), %eax
	addl	$92, %eax
	movl	%eax, %edx
	movl	%edx, %eax
	shrl	$3, %eax
	addl	$536870912, %eax
	movzbl	(%eax), %ecx
	testb	%cl, %cl
	setne	%al
	movl	%eax, %esi
	movl	%edx, %eax
	andl	$7, %eax
	addl	$3, %eax
	cmpb	%cl, %al
	setge	%al
	andl	%esi, %eax
	testb	%al, %al
	je	.L483
	subl	$12, %esp
	pushl	%edx
	call	__asan_report_store4
.L483:
	movl	8(%ebp), %eax
	movl	%ebx, 92(%eax)
	subl	$8, %esp
	pushl	12(%ebp)
	pushl	8(%ebp)
	call	finish_connection
	addl	$16, %esp
	jmp	.L422
.L474:
	movl	8(%ebp), %eax
	addl	$92, %eax
	movl	%eax, %edx
	movl	%edx, %eax
	shrl	$3, %eax
	addl	$536870912, %eax
	movzbl	(%eax), %ecx
	testb	%cl, %cl
	setne	%bl
	movl	%edx, %eax
	andl	$7, %eax
	addl	$3, %eax
	cmpb	%cl, %al
	setge	%al
	andl	%ebx, %eax
	testb	%al, %al
	je	.L484
	subl	$12, %esp
	pushl	%edx
	call	__asan_report_load4
.L484:
	movl	8(%ebp), %eax
	movl	92(%eax), %esi
	movl	8(%ebp), %eax
	addl	$88, %eax
	movl	%eax, %ecx
	movl	%ecx, %eax
	shrl	$3, %eax
	addl	$536870912, %eax
	movzbl	(%eax), %edx
	testb	%dl, %dl
	setne	%bl
	movl	%ecx, %eax
	andl	$7, %eax
	addl	$3, %eax
	cmpb	%dl, %al
	setge	%al
	andl	%ebx, %eax
	testb	%al, %al
	je	.L485
	subl	$12, %esp
	pushl	%ecx
	call	__asan_report_load4
.L485:
	movl	8(%ebp), %eax
	movl	88(%eax), %eax
	cmpl	%eax, %esi
	jl	.L486
	subl	$8, %esp
	pushl	12(%ebp)
	pushl	8(%ebp)
	call	finish_connection
	addl	$16, %esp
	jmp	.L422
.L486:
	movl	8(%ebp), %eax
	movl	%eax, %edx
	movl	%edx, %eax
	shrl	$3, %eax
	addl	$536870912, %eax
	movzbl	(%eax), %ecx
	testb	%cl, %cl
	setne	%bl
	movl	%edx, %eax
	andl	$7, %eax
	addl	$3, %eax
	cmpb	%cl, %al
	setge	%al
	andl	%ebx, %eax
	testb	%al, %al
	je	.L487
	subl	$12, %esp
	pushl	%edx
	call	__asan_report_store4
.L487:
	movl	8(%ebp), %eax
	movl	$2, (%eax)
	movl	12(%ebp), %eax
	movl	%eax, %edx
	movl	%edx, %eax
	shrl	$3, %eax
	addl	$536870912, %eax
	movzbl	(%eax), %ecx
	testb	%cl, %cl
	setne	%bl
	movl	%edx, %eax
	andl	$7, %eax
	addl	$3, %eax
	cmpb	%cl, %al
	setge	%al
	andl	%ebx, %eax
	testb	%al, %al
	je	.L488
	subl	$12, %esp
	pushl	%edx
	call	__asan_report_load4
.L488:
	movl	12(%ebp), %eax
	movl	(%eax), %esi
	movl	8(%ebp), %eax
	addl	$64, %eax
	movl	%eax, %ecx
	movl	%ecx, %eax
	shrl	$3, %eax
	addl	$536870912, %eax
	movzbl	(%eax), %edx
	testb	%dl, %dl
	setne	%bl
	movl	%ecx, %eax
	andl	$7, %eax
	addl	$3, %eax
	cmpb	%dl, %al
	setge	%al
	andl	%ebx, %eax
	testb	%al, %al
	je	.L489
	subl	$12, %esp
	pushl	%ecx
	call	__asan_report_store4
.L489:
	movl	8(%ebp), %eax
	movl	%esi, 64(%eax)
	movl	8(%ebp), %eax
	addl	$80, %eax
	movl	%eax, %edx
	movl	%edx, %eax
	shrl	$3, %eax
	addl	$536870912, %eax
	movzbl	(%eax), %ecx
	testb	%cl, %cl
	setne	%bl
	movl	%edx, %eax
	andl	$7, %eax
	addl	$3, %eax
	cmpb	%cl, %al
	setge	%al
	andl	%ebx, %eax
	testb	%al, %al
	je	.L490
	subl	$12, %esp
	pushl	%edx
	call	__asan_report_store4
.L490:
	movl	8(%ebp), %eax
	movl	$0, 80(%eax)
	movl	8(%ebp), %eax
	movl	-148(%ebp), %edi
	movl	%eax, -64(%edi)
	movl	-128(%ebp), %eax
	addl	$448, %eax
	movl	%eax, %edx
	movl	%edx, %eax
	shrl	$3, %eax
	addl	$536870912, %eax
	movzbl	(%eax), %ecx
	testb	%cl, %cl
	setne	%bl
	movl	%edx, %eax
	andl	$7, %eax
	addl	$3, %eax
	cmpb	%cl, %al
	setge	%al
	andl	%ebx, %eax
	testb	%al, %al
	je	.L491
	subl	$12, %esp
	pushl	%edx
	call	__asan_report_load4
.L491:
	movl	-128(%ebp), %eax
	movl	448(%eax), %eax
	subl	$12, %esp
	pushl	%eax
	call	fdwatch_del_fd
	addl	$16, %esp
	movl	-128(%ebp), %eax
	addl	$448, %eax
	movl	%eax, %edx
	movl	%edx, %eax
	shrl	$3, %eax
	addl	$536870912, %eax
	movzbl	(%eax), %ecx
	testb	%cl, %cl
	setne	%bl
	movl	%edx, %eax
	andl	$7, %eax
	addl	$3, %eax
	cmpb	%cl, %al
	setge	%al
	andl	%ebx, %eax
	testb	%al, %al
	je	.L492
	subl	$12, %esp
	pushl	%edx
	call	__asan_report_load4
.L492:
	movl	-128(%ebp), %eax
	movl	448(%eax), %eax
	subl	$4, %esp
	pushl	$1
	pushl	8(%ebp)
	pushl	%eax
	call	fdwatch_add_fd
	addl	$16, %esp
	jmp	.L422
.L495:
	nop
.L422:
	movl	-140(%ebp), %edi
	cmpl	%edi, -152(%ebp)
	je	.L420
	movl	-140(%ebp), %eax
	movl	$1172321806, (%eax)
	movl	-144(%ebp), %eax
	movl	$-168430091, 536870912(%eax)
	movl	$-168430091, 536870916(%eax)
	movl	$-168430091, 536870920(%eax)
	jmp	.L421
.L420:
	movl	-144(%ebp), %eax
	movl	$0, 536870912(%eax)
	movl	$0, 536870916(%eax)
	movl	$0, 536870920(%eax)
.L421:
	leal	-12(%ebp), %esp
	popl	%ebx
	.cfi_restore 3
	popl	%esi
	.cfi_restore 6
	popl	%edi
	.cfi_restore 7
	popl	%ebp
	.cfi_restore 5
	.cfi_def_cfa 4, 4
	ret
	.cfi_endproc
.LFE18:
	.size	handle_read, .-handle_read
	.section	.rodata
	.align 4
.LC126:
	.string	"2 32 4 11 client_data 96 16 2 iv "
	.align 32
.LC127:
	.string	"replacing non-null wakeup_timer!"
	.zero	63
	.align 32
.LC128:
	.string	"tmr_create(wakeup_connection) failed"
	.zero	59
	.align 32
.LC129:
	.string	"write - %m sending %.80s"
	.zero	39
	.text
	.type	handle_send, @function
handle_send:
.LASANPC19:
.LFB19:
	.cfi_startproc
	pushl	%ebp
	.cfi_def_cfa_offset 8
	.cfi_offset 5, -8
	movl	%esp, %ebp
	.cfi_def_cfa_register 5
	pushl	%edi
	pushl	%esi
	pushl	%ebx
	subl	$236, %esp
	.cfi_offset 7, -12
	.cfi_offset 6, -16
	.cfi_offset 3, -20
	leal	-184(%ebp), %eax
	movl	%eax, -224(%ebp)
	movl	%eax, -248(%ebp)
	cmpl	$0, __asan_option_detect_stack_use_after_return
	je	.L496
	subl	$8, %esp
	pushl	-224(%ebp)
	pushl	$160
	call	__asan_stack_malloc_2
	addl	$16, %esp
	movl	%eax, -224(%ebp)
.L496:
	movl	-224(%ebp), %edi
	movl	%edi, %eax
	addl	$160, %eax
	movl	%eax, -220(%ebp)
	movl	%edi, %eax
	movl	$1102416563, (%eax)
	movl	%edi, %eax
	movl	$.LC126, 4(%eax)
	movl	$.LASANPC19, 8(%eax)
	shrl	$3, %eax
	movl	%eax, -236(%ebp)
	movl	$-235802127, 536870912(%eax)
	movl	$-185273340, 536870916(%eax)
	movl	$-218959118, 536870920(%eax)
	movl	$-185335808, 536870924(%eax)
	movl	$-202116109, 536870928(%eax)
	movl	8(%ebp), %eax
	addl	$8, %eax
	movl	%eax, %edx
	movl	%edx, %eax
	shrl	$3, %eax
	addl	$536870912, %eax
	movzbl	(%eax), %ecx
	testb	%cl, %cl
	setne	%bl
	movl	%edx, %eax
	andl	$7, %eax
	addl	$3, %eax
	cmpb	%cl, %al
	setge	%al
	andl	%ebx, %eax
	testb	%al, %al
	je	.L500
	subl	$12, %esp
	pushl	%edx
	call	__asan_report_load4
.L500:
	movl	8(%ebp), %eax
	movl	8(%eax), %eax
	movl	%eax, -196(%ebp)
	movl	8(%ebp), %eax
	addl	$56, %eax
	movl	%eax, %edx
	movl	%edx, %eax
	shrl	$3, %eax
	addl	$536870912, %eax
	movzbl	(%eax), %ecx
	testb	%cl, %cl
	setne	%bl
	movl	%edx, %eax
	andl	$7, %eax
	addl	$3, %eax
	cmpb	%cl, %al
	setge	%al
	andl	%ebx, %eax
	testb	%al, %al
	je	.L501
	subl	$12, %esp
	pushl	%edx
	call	__asan_report_load4
.L501:
	movl	8(%ebp), %eax
	movl	56(%eax), %eax
	cmpl	$-1, %eax
	jne	.L502
	movl	$1000000000, -212(%ebp)
	jmp	.L503
.L502:
	movl	8(%ebp), %eax
	addl	$56, %eax
	movl	%eax, %edx
	movl	%edx, %eax
	shrl	$3, %eax
	addl	$536870912, %eax
	movzbl	(%eax), %ecx
	testb	%cl, %cl
	setne	%bl
	movl	%edx, %eax
	andl	$7, %eax
	addl	$3, %eax
	cmpb	%cl, %al
	setge	%al
	andl	%ebx, %eax
	testb	%al, %al
	je	.L504
	subl	$12, %esp
	pushl	%edx
	call	__asan_report_load4
.L504:
	movl	8(%ebp), %eax
	movl	56(%eax), %eax
	leal	3(%eax), %edx
	testl	%eax, %eax
	cmovs	%edx, %eax
	sarl	$2, %eax
	movl	%eax, -212(%ebp)
.L503:
	movl	-196(%ebp), %eax
	addl	$304, %eax
	movl	%eax, %edx
	movl	%edx, %eax
	shrl	$3, %eax
	addl	$536870912, %eax
	movzbl	(%eax), %ecx
	testb	%cl, %cl
	setne	%bl
	movl	%edx, %eax
	andl	$7, %eax
	addl	$3, %eax
	cmpb	%cl, %al
	setge	%al
	andl	%ebx, %eax
	testb	%al, %al
	je	.L505
	subl	$12, %esp
	pushl	%edx
	call	__asan_report_load4
.L505:
	movl	-196(%ebp), %eax
	movl	304(%eax), %eax
	testl	%eax, %eax
	jne	.L506
	movl	8(%ebp), %eax
	addl	$88, %eax
	movl	%eax, %edx
	movl	%edx, %eax
	shrl	$3, %eax
	addl	$536870912, %eax
	movzbl	(%eax), %ecx
	testb	%cl, %cl
	setne	%bl
	movl	%edx, %eax
	andl	$7, %eax
	addl	$3, %eax
	cmpb	%cl, %al
	setge	%al
	andl	%ebx, %eax
	testb	%al, %al
	je	.L507
	subl	$12, %esp
	pushl	%edx
	call	__asan_report_load4
.L507:
	movl	8(%ebp), %eax
	movl	88(%eax), %esi
	movl	8(%ebp), %eax
	addl	$92, %eax
	movl	%eax, %ecx
	movl	%ecx, %eax
	shrl	$3, %eax
	addl	$536870912, %eax
	movzbl	(%eax), %edx
	testb	%dl, %dl
	setne	%bl
	movl	%ecx, %eax
	andl	$7, %eax
	addl	$3, %eax
	cmpb	%dl, %al
	setge	%al
	andl	%ebx, %eax
	testb	%al, %al
	je	.L508
	subl	$12, %esp
	pushl	%ecx
	call	__asan_report_load4
.L508:
	movl	8(%ebp), %eax
	movl	92(%eax), %eax
	subl	%eax, %esi
	movl	%esi, %eax
	movl	%eax, %edx
	movl	-212(%ebp), %eax
	cmpl	%eax, %edx
	cmovbe	%edx, %eax
	movl	%eax, %edi
	movl	-196(%ebp), %eax
	addl	$452, %eax
	movl	%eax, %ecx
	movl	%ecx, %eax
	shrl	$3, %eax
	addl	$536870912, %eax
	movzbl	(%eax), %edx
	testb	%dl, %dl
	setne	%bl
	movl	%ecx, %eax
	andl	$7, %eax
	addl	$3, %eax
	cmpb	%dl, %al
	setge	%al
	andl	%ebx, %eax
	testb	%al, %al
	je	.L509
	subl	$12, %esp
	pushl	%ecx
	call	__asan_report_load4
.L509:
	movl	-196(%ebp), %eax
	movl	452(%eax), %edx
	movl	8(%ebp), %eax
	movl	92(%eax), %eax
	leal	(%edx,%eax), %esi
	movl	-196(%ebp), %eax
	addl	$448, %eax
	movl	%eax, %ecx
	movl	%ecx, %eax
	shrl	$3, %eax
	addl	$536870912, %eax
	movzbl	(%eax), %edx
	testb	%dl, %dl
	setne	%bl
	movl	%ecx, %eax
	andl	$7, %eax
	addl	$3, %eax
	cmpb	%dl, %al
	setge	%al
	andl	%ebx, %eax
	testb	%al, %al
	je	.L510
	subl	$12, %esp
	pushl	%ecx
	call	__asan_report_load4
.L510:
	movl	-196(%ebp), %eax
	movl	448(%eax), %eax
	subl	$4, %esp
	pushl	%edi
	pushl	%esi
	pushl	%eax
	call	write
	addl	$16, %esp
	movl	%eax, -208(%ebp)
	jmp	.L511
.L506:
	movl	-196(%ebp), %eax
	addl	$252, %eax
	movl	%eax, %edx
	movl	%edx, %eax
	shrl	$3, %eax
	addl	$536870912, %eax
	movzbl	(%eax), %ecx
	testb	%cl, %cl
	setne	%bl
	movl	%edx, %eax
	andl	$7, %eax
	addl	$3, %eax
	cmpb	%cl, %al
	setge	%al
	andl	%ebx, %eax
	testb	%al, %al
	je	.L512
	subl	$12, %esp
	pushl	%edx
	call	__asan_report_load4
.L512:
	movl	-196(%ebp), %eax
	movl	252(%eax), %eax
	movl	-220(%ebp), %edi
	movl	%eax, -64(%edi)
	movl	-196(%ebp), %eax
	addl	$304, %eax
	movl	%eax, %edx
	movl	%edx, %eax
	shrl	$3, %eax
	addl	$536870912, %eax
	movzbl	(%eax), %ecx
	testb	%cl, %cl
	setne	%bl
	movl	%edx, %eax
	andl	$7, %eax
	addl	$3, %eax
	cmpb	%cl, %al
	setge	%al
	andl	%ebx, %eax
	testb	%al, %al
	je	.L513
	subl	$12, %esp
	pushl	%edx
	call	__asan_report_load4
.L513:
	movl	-196(%ebp), %eax
	movl	304(%eax), %eax
	movl	-220(%ebp), %edi
	movl	%eax, -60(%edi)
	movl	-196(%ebp), %eax
	addl	$452, %eax
	movl	%eax, %edx
	movl	%edx, %eax
	shrl	$3, %eax
	addl	$536870912, %eax
	movzbl	(%eax), %ecx
	testb	%cl, %cl
	setne	%bl
	movl	%edx, %eax
	andl	$7, %eax
	addl	$3, %eax
	cmpb	%cl, %al
	setge	%al
	andl	%ebx, %eax
	testb	%al, %al
	je	.L514
	subl	$12, %esp
	pushl	%edx
	call	__asan_report_load4
.L514:
	movl	-196(%ebp), %eax
	movl	452(%eax), %esi
	movl	8(%ebp), %eax
	addl	$92, %eax
	movl	%eax, %ecx
	movl	%ecx, %eax
	shrl	$3, %eax
	addl	$536870912, %eax
	movzbl	(%eax), %edx
	testb	%dl, %dl
	setne	%bl
	movl	%ecx, %eax
	andl	$7, %eax
	addl	$3, %eax
	cmpb	%dl, %al
	setge	%al
	andl	%ebx, %eax
	testb	%al, %al
	je	.L515
	subl	$12, %esp
	pushl	%ecx
	call	__asan_report_load4
.L515:
	movl	8(%ebp), %eax
	movl	92(%eax), %eax
	addl	%esi, %eax
	movl	-220(%ebp), %edi
	movl	%eax, -56(%edi)
	movl	8(%ebp), %eax
	addl	$88, %eax
	movl	%eax, %edx
	movl	%edx, %eax
	shrl	$3, %eax
	addl	$536870912, %eax
	movzbl	(%eax), %ecx
	testb	%cl, %cl
	setne	%bl
	movl	%edx, %eax
	andl	$7, %eax
	addl	$3, %eax
	cmpb	%cl, %al
	setge	%al
	andl	%ebx, %eax
	testb	%al, %al
	je	.L516
	subl	$12, %esp
	pushl	%edx
	call	__asan_report_load4
.L516:
	movl	8(%ebp), %eax
	movl	88(%eax), %edx
	movl	8(%ebp), %eax
	movl	92(%eax), %eax
	subl	%eax, %edx
	movl	%edx, %eax
	movl	%eax, %edx
	movl	-212(%ebp), %eax
	cmpl	%eax, %edx
	cmovbe	%edx, %eax
	movl	-220(%ebp), %edi
	movl	%eax, -52(%edi)
	movl	-196(%ebp), %eax
	addl	$448, %eax
	movl	%eax, %edx
	movl	%edx, %eax
	shrl	$3, %eax
	addl	$536870912, %eax
	movzbl	(%eax), %ecx
	testb	%cl, %cl
	setne	%bl
	movl	%edx, %eax
	andl	$7, %eax
	addl	$3, %eax
	cmpb	%cl, %al
	setge	%al
	andl	%ebx, %eax
	testb	%al, %al
	je	.L517
	subl	$12, %esp
	pushl	%edx
	call	__asan_report_load4
.L517:
	movl	-196(%ebp), %eax
	movl	448(%eax), %eax
	subl	$4, %esp
	pushl	$2
	movl	-220(%ebp), %edi
	leal	-64(%edi), %edx
	pushl	%edx
	pushl	%eax
	call	writev
	addl	$16, %esp
	movl	%eax, -208(%ebp)
.L511:
	cmpl	$0, -208(%ebp)
	jns	.L518
	call	__errno_location
	movl	%eax, %esi
	movl	%esi, %ecx
	movl	%ecx, %eax
	shrl	$3, %eax
	addl	$536870912, %eax
	movzbl	(%eax), %edx
	testb	%dl, %dl
	setne	%bl
	movl	%ecx, %eax
	andl	$7, %eax
	addl	$3, %eax
	cmpb	%dl, %al
	setge	%al
	andl	%ebx, %eax
	testb	%al, %al
	je	.L519
	subl	$12, %esp
	pushl	%ecx
	call	__asan_report_load4
.L519:
	movl	(%esi), %eax
	cmpl	$4, %eax
	jne	.L518
	jmp	.L499
.L518:
	cmpl	$0, -208(%ebp)
	je	.L521
	cmpl	$0, -208(%ebp)
	jns	.L522
	call	__errno_location
	movl	%eax, %esi
	movl	%esi, %ecx
	movl	%ecx, %eax
	shrl	$3, %eax
	addl	$536870912, %eax
	movzbl	(%eax), %edx
	testb	%dl, %dl
	setne	%bl
	movl	%ecx, %eax
	andl	$7, %eax
	addl	$3, %eax
	cmpb	%dl, %al
	setge	%al
	andl	%ebx, %eax
	testb	%al, %al
	je	.L523
	subl	$12, %esp
	pushl	%ecx
	call	__asan_report_load4
.L523:
	movl	(%esi), %eax
	cmpl	$11, %eax
	je	.L521
	call	__errno_location
	movl	%eax, %esi
	movl	%esi, %ecx
	movl	%ecx, %eax
	shrl	$3, %eax
	addl	$536870912, %eax
	movzbl	(%eax), %edx
	testb	%dl, %dl
	setne	%bl
	movl	%ecx, %eax
	andl	$7, %eax
	addl	$3, %eax
	cmpb	%dl, %al
	setge	%al
	andl	%ebx, %eax
	testb	%al, %al
	je	.L524
	subl	$12, %esp
	pushl	%ecx
	call	__asan_report_load4
.L524:
	movl	(%esi), %eax
	cmpl	$11, %eax
	jne	.L522
.L521:
	movl	8(%ebp), %eax
	addl	$80, %eax
	movl	%eax, %edx
	movl	%edx, %eax
	shrl	$3, %eax
	addl	$536870912, %eax
	movzbl	(%eax), %ecx
	testb	%cl, %cl
	setne	%bl
	movl	%edx, %eax
	andl	$7, %eax
	addl	$3, %eax
	cmpb	%cl, %al
	setge	%al
	andl	%ebx, %eax
	testb	%al, %al
	je	.L525
	subl	$12, %esp
	pushl	%edx
	call	__asan_report_load4
.L525:
	movl	8(%ebp), %eax
	movl	80(%eax), %eax
	leal	100(%eax), %edx
	movl	8(%ebp), %eax
	movl	%edx, 80(%eax)
	movl	8(%ebp), %eax
	movl	%eax, %edx
	movl	%edx, %eax
	shrl	$3, %eax
	addl	$536870912, %eax
	movzbl	(%eax), %ecx
	testb	%cl, %cl
	setne	%bl
	movl	%edx, %eax
	andl	$7, %eax
	addl	$3, %eax
	cmpb	%cl, %al
	setge	%al
	andl	%ebx, %eax
	testb	%al, %al
	je	.L526
	subl	$12, %esp
	pushl	%edx
	call	__asan_report_store4
.L526:
	movl	8(%ebp), %eax
	movl	$3, (%eax)
	movl	-196(%ebp), %eax
	addl	$448, %eax
	movl	%eax, %edx
	movl	%edx, %eax
	shrl	$3, %eax
	addl	$536870912, %eax
	movzbl	(%eax), %ecx
	testb	%cl, %cl
	setne	%bl
	movl	%edx, %eax
	andl	$7, %eax
	addl	$3, %eax
	cmpb	%cl, %al
	setge	%al
	andl	%ebx, %eax
	testb	%al, %al
	je	.L527
	subl	$12, %esp
	pushl	%edx
	call	__asan_report_load4
.L527:
	movl	-196(%ebp), %eax
	movl	448(%eax), %eax
	subl	$12, %esp
	pushl	%eax
	call	fdwatch_del_fd
	addl	$16, %esp
	movl	8(%ebp), %eax
	movl	-220(%ebp), %edi
	movl	%eax, -128(%edi)
	movl	8(%ebp), %eax
	addl	$72, %eax
	movl	%eax, %edx
	movl	%edx, %eax
	shrl	$3, %eax
	addl	$536870912, %eax
	movzbl	(%eax), %ecx
	testb	%cl, %cl
	setne	%bl
	movl	%edx, %eax
	andl	$7, %eax
	addl	$3, %eax
	cmpb	%cl, %al
	setge	%al
	andl	%ebx, %eax
	testb	%al, %al
	je	.L528
	subl	$12, %esp
	pushl	%edx
	call	__asan_report_load4
.L528:
	movl	8(%ebp), %eax
	movl	72(%eax), %eax
	testl	%eax, %eax
	je	.L529
	subl	$8, %esp
	pushl	$.LC127
	pushl	$3
	call	syslog
	addl	$16, %esp
.L529:
	movl	8(%ebp), %eax
	addl	$80, %eax
	movl	%eax, %edx
	movl	%edx, %eax
	shrl	$3, %eax
	addl	$536870912, %eax
	movzbl	(%eax), %ecx
	testb	%cl, %cl
	setne	%bl
	movl	%edx, %eax
	andl	$7, %eax
	addl	$3, %eax
	cmpb	%cl, %al
	setge	%al
	andl	%ebx, %eax
	testb	%al, %al
	je	.L530
	subl	$12, %esp
	pushl	%edx
	call	__asan_report_load4
.L530:
	movl	8(%ebp), %eax
	movl	80(%eax), %eax
	subl	$12, %esp
	pushl	$0
	pushl	%eax
	movl	-220(%ebp), %eax
	pushl	-128(%eax)
	pushl	$wakeup_connection
	pushl	12(%ebp)
	call	tmr_create
	addl	$32, %esp
	movl	%eax, %ebx
	movl	8(%ebp), %eax
	addl	$72, %eax
	movl	%eax, %edx
	movl	%edx, %eax
	shrl	$3, %eax
	addl	$536870912, %eax
	movzbl	(%eax), %ecx
	testb	%cl, %cl
	setne	%al
	movl	%eax, %esi
	movl	%edx, %eax
	andl	$7, %eax
	addl	$3, %eax
	cmpb	%cl, %al
	setge	%al
	andl	%esi, %eax
	testb	%al, %al
	je	.L531
	subl	$12, %esp
	pushl	%edx
	call	__asan_report_store4
.L531:
	movl	8(%ebp), %eax
	movl	%ebx, 72(%eax)
	movl	8(%ebp), %eax
	movl	72(%eax), %eax
	testl	%eax, %eax
	jne	.L532
	subl	$8, %esp
	pushl	$.LC128
	pushl	$2
	call	syslog
	addl	$16, %esp
	call	__asan_handle_no_return
	subl	$12, %esp
	pushl	$1
	call	exit
.L532:
	jmp	.L499
.L522:
	cmpl	$0, -208(%ebp)
	jns	.L533
	call	__errno_location
	movl	%eax, %ebx
	movl	%ebx, %edx
	movl	%edx, %eax
	shrl	$3, %eax
	addl	$536870912, %eax
	movzbl	(%eax), %ecx
	testb	%cl, %cl
	setne	%al
	movl	%eax, %esi
	movl	%edx, %eax
	andl	$7, %eax
	addl	$3, %eax
	cmpb	%cl, %al
	setge	%al
	andl	%esi, %eax
	testb	%al, %al
	je	.L534
	subl	$12, %esp
	pushl	%edx
	call	__asan_report_load4
.L534:
	movl	(%ebx), %eax
	cmpl	$32, %eax
	je	.L535
	call	__errno_location
	movl	%eax, %ebx
	movl	%ebx, %edx
	movl	%edx, %eax
	shrl	$3, %eax
	addl	$536870912, %eax
	movzbl	(%eax), %ecx
	testb	%cl, %cl
	setne	%al
	movl	%eax, %esi
	movl	%edx, %eax
	andl	$7, %eax
	addl	$3, %eax
	cmpb	%cl, %al
	setge	%al
	andl	%esi, %eax
	testb	%al, %al
	je	.L536
	subl	$12, %esp
	pushl	%edx
	call	__asan_report_load4
.L536:
	movl	(%ebx), %eax
	cmpl	$22, %eax
	je	.L535
	call	__errno_location
	movl	%eax, %ebx
	movl	%ebx, %edx
	movl	%edx, %eax
	shrl	$3, %eax
	addl	$536870912, %eax
	movzbl	(%eax), %ecx
	testb	%cl, %cl
	setne	%al
	movl	%eax, %esi
	movl	%edx, %eax
	andl	$7, %eax
	addl	$3, %eax
	cmpb	%cl, %al
	setge	%al
	andl	%esi, %eax
	testb	%al, %al
	je	.L537
	subl	$12, %esp
	pushl	%edx
	call	__asan_report_load4
.L537:
	movl	(%ebx), %eax
	cmpl	$104, %eax
	je	.L535
	movl	-196(%ebp), %eax
	addl	$172, %eax
	movl	%eax, %edx
	movl	%edx, %eax
	shrl	$3, %eax
	addl	$536870912, %eax
	movzbl	(%eax), %ecx
	testb	%cl, %cl
	setne	%bl
	movl	%edx, %eax
	andl	$7, %eax
	addl	$3, %eax
	cmpb	%cl, %al
	setge	%al
	andl	%ebx, %eax
	testb	%al, %al
	je	.L538
	subl	$12, %esp
	pushl	%edx
	call	__asan_report_load4
.L538:
	movl	-196(%ebp), %eax
	movl	172(%eax), %eax
	subl	$4, %esp
	pushl	%eax
	pushl	$.LC129
	pushl	$3
	call	syslog
	addl	$16, %esp
.L535:
	subl	$8, %esp
	pushl	12(%ebp)
	pushl	8(%ebp)
	call	clear_connection
	addl	$16, %esp
	jmp	.L499
.L533:
	movl	12(%ebp), %eax
	movl	%eax, %edx
	movl	%edx, %eax
	shrl	$3, %eax
	addl	$536870912, %eax
	movzbl	(%eax), %ecx
	testb	%cl, %cl
	setne	%bl
	movl	%edx, %eax
	andl	$7, %eax
	addl	$3, %eax
	cmpb	%cl, %al
	setge	%al
	andl	%ebx, %eax
	testb	%al, %al
	je	.L539
	subl	$12, %esp
	pushl	%edx
	call	__asan_report_load4
.L539:
	movl	12(%ebp), %eax
	movl	(%eax), %esi
	movl	8(%ebp), %eax
	addl	$68, %eax
	movl	%eax, %ecx
	movl	%ecx, %eax
	shrl	$3, %eax
	addl	$536870912, %eax
	movzbl	(%eax), %edx
	testb	%dl, %dl
	setne	%bl
	movl	%ecx, %eax
	andl	$7, %eax
	addl	$3, %eax
	cmpb	%dl, %al
	setge	%al
	andl	%ebx, %eax
	testb	%al, %al
	je	.L540
	subl	$12, %esp
	pushl	%ecx
	call	__asan_report_store4
.L540:
	movl	8(%ebp), %eax
	movl	%esi, 68(%eax)
	movl	-196(%ebp), %eax
	addl	$304, %eax
	movl	%eax, %edx
	movl	%edx, %eax
	shrl	$3, %eax
	addl	$536870912, %eax
	movzbl	(%eax), %ecx
	testb	%cl, %cl
	setne	%bl
	movl	%edx, %eax
	andl	$7, %eax
	addl	$3, %eax
	cmpb	%cl, %al
	setge	%al
	andl	%ebx, %eax
	testb	%al, %al
	je	.L541
	subl	$12, %esp
	pushl	%edx
	call	__asan_report_load4
.L541:
	movl	-196(%ebp), %eax
	movl	304(%eax), %eax
	testl	%eax, %eax
	je	.L542
	movl	-208(%ebp), %edx
	movl	-196(%ebp), %eax
	movl	304(%eax), %eax
	cmpl	%eax, %edx
	jae	.L543
	movl	-196(%ebp), %eax
	movl	304(%eax), %edx
	movl	-208(%ebp), %eax
	subl	%eax, %edx
	movl	%edx, %eax
	movl	%eax, -192(%ebp)
	movl	-192(%ebp), %eax
	movl	%eax, -228(%ebp)
	movl	-196(%ebp), %eax
	addl	$252, %eax
	movl	%eax, %ecx
	movl	%ecx, %eax
	shrl	$3, %eax
	addl	$536870912, %eax
	movzbl	(%eax), %edx
	testb	%dl, %dl
	setne	%bl
	movl	%ecx, %eax
	andl	$7, %eax
	addl	$3, %eax
	cmpb	%dl, %al
	setge	%al
	andl	%ebx, %eax
	testb	%al, %al
	je	.L544
	subl	$12, %esp
	pushl	%ecx
	call	__asan_report_load4
.L544:
	movl	-196(%ebp), %eax
	movl	252(%eax), %edx
	movl	-208(%ebp), %eax
	addl	%edx, %eax
	movl	%eax, %esi
	movl	%esi, -240(%ebp)
	movl	-196(%ebp), %eax
	movl	252(%eax), %eax
	movl	%eax, -232(%ebp)
	movl	-228(%ebp), %edi
	testl	%edi, %edi
	je	.L545
	movl	%esi, %eax
	shrl	$3, %eax
	addl	$536870912, %eax
	movzbl	(%eax), %edx
	testb	%dl, %dl
	setne	%cl
	movl	%esi, %eax
	andl	$7, %eax
	cmpb	%dl, %al
	setge	%al
	andl	%eax, %ecx
	movb	%cl, -241(%ebp)
	leal	-1(%edi), %eax
	leal	(%esi,%eax), %ecx
	movl	%ecx, %eax
	shrl	$3, %eax
	addl	$536870912, %eax
	movzbl	(%eax), %edx
	testb	%dl, %dl
	setne	%bl
	movl	%ecx, %eax
	andl	$7, %eax
	cmpb	%dl, %al
	setge	%al
	andl	%ebx, %eax
	orb	-241(%ebp), %al
	testb	%al, %al
	je	.L545
	subl	$8, %esp
	pushl	%edi
	pushl	%esi
	call	__asan_report_load_n
.L545:
	movl	-228(%ebp), %edi
	testl	%edi, %edi
	je	.L546
	movl	-232(%ebp), %esi
	movl	%esi, %eax
	shrl	$3, %eax
	addl	$536870912, %eax
	movzbl	(%eax), %edx
	testb	%dl, %dl
	setne	%cl
	movl	%esi, %eax
	andl	$7, %eax
	cmpb	%dl, %al
	setge	%al
	andl	%eax, %ecx
	movb	%cl, -241(%ebp)
	leal	-1(%edi), %eax
	leal	(%esi,%eax), %ecx
	movl	%ecx, %eax
	shrl	$3, %eax
	addl	$536870912, %eax
	movzbl	(%eax), %edx
	testb	%dl, %dl
	setne	%bl
	movl	%ecx, %eax
	andl	$7, %eax
	cmpb	%dl, %al
	setge	%al
	andl	%ebx, %eax
	orb	-241(%ebp), %al
	testb	%al, %al
	je	.L546
	subl	$8, %esp
	pushl	%edi
	pushl	%esi
	call	__asan_report_store_n
.L546:
	subl	$4, %esp
	pushl	-228(%ebp)
	pushl	-240(%ebp)
	pushl	-232(%ebp)
	call	memmove
	addl	$16, %esp
	movl	-192(%ebp), %edx
	movl	-196(%ebp), %eax
	movl	%edx, 304(%eax)
	movl	$0, -208(%ebp)
	jmp	.L542
.L543:
	movl	-208(%ebp), %esi
	movl	-196(%ebp), %eax
	addl	$304, %eax
	movl	%eax, %ecx
	movl	%ecx, %eax
	shrl	$3, %eax
	addl	$536870912, %eax
	movzbl	(%eax), %edx
	testb	%dl, %dl
	setne	%bl
	movl	%ecx, %eax
	andl	$7, %eax
	addl	$3, %eax
	cmpb	%dl, %al
	setge	%al
	andl	%ebx, %eax
	testb	%al, %al
	je	.L547
	subl	$12, %esp
	pushl	%ecx
	call	__asan_report_load4
.L547:
	movl	-196(%ebp), %eax
	movl	304(%eax), %eax
	subl	%eax, %esi
	movl	%esi, %eax
	movl	%eax, -208(%ebp)
	movl	-196(%ebp), %eax
	movl	$0, 304(%eax)
.L542:
	movl	8(%ebp), %eax
	addl	$92, %eax
	movl	%eax, %edx
	movl	%edx, %eax
	shrl	$3, %eax
	addl	$536870912, %eax
	movzbl	(%eax), %ecx
	testb	%cl, %cl
	setne	%bl
	movl	%edx, %eax
	andl	$7, %eax
	addl	$3, %eax
	cmpb	%cl, %al
	setge	%al
	andl	%ebx, %eax
	testb	%al, %al
	je	.L548
	subl	$12, %esp
	pushl	%edx
	call	__asan_report_load4
.L548:
	movl	8(%ebp), %eax
	movl	92(%eax), %edx
	movl	-208(%ebp), %eax
	addl	%eax, %edx
	movl	8(%ebp), %eax
	movl	%edx, 92(%eax)
	movl	8(%ebp), %eax
	addl	$8, %eax
	movl	%eax, %edx
	movl	%edx, %eax
	shrl	$3, %eax
	addl	$536870912, %eax
	movzbl	(%eax), %ecx
	testb	%cl, %cl
	setne	%bl
	movl	%edx, %eax
	andl	$7, %eax
	addl	$3, %eax
	cmpb	%cl, %al
	setge	%al
	andl	%ebx, %eax
	testb	%al, %al
	je	.L549
	subl	$12, %esp
	pushl	%edx
	call	__asan_report_load4
.L549:
	movl	8(%ebp), %eax
	movl	8(%eax), %edi
	movl	8(%ebp), %eax
	movl	8(%eax), %esi
	leal	168(%esi), %eax
	movl	%eax, %ecx
	movl	%ecx, %eax
	shrl	$3, %eax
	addl	$536870912, %eax
	movzbl	(%eax), %edx
	testb	%dl, %dl
	setne	%bl
	movl	%ecx, %eax
	andl	$7, %eax
	addl	$3, %eax
	cmpb	%dl, %al
	setge	%al
	andl	%ebx, %eax
	testb	%al, %al
	je	.L550
	subl	$12, %esp
	pushl	%ecx
	call	__asan_report_load4
.L550:
	movl	168(%esi), %edx
	movl	-208(%ebp), %eax
	leal	(%edx,%eax), %esi
	leal	168(%edi), %eax
	movl	%eax, %ecx
	movl	%ecx, %eax
	shrl	$3, %eax
	addl	$536870912, %eax
	movzbl	(%eax), %edx
	testb	%dl, %dl
	setne	%bl
	movl	%ecx, %eax
	andl	$7, %eax
	addl	$3, %eax
	cmpb	%dl, %al
	setge	%al
	andl	%ebx, %eax
	testb	%al, %al
	je	.L551
	subl	$12, %esp
	pushl	%ecx
	call	__asan_report_store4
.L551:
	movl	%esi, 168(%edi)
	movl	$0, -200(%ebp)
	jmp	.L552
.L557:
	movl	throttles, %esi
	movl	-200(%ebp), %eax
	leal	0(,%eax,4), %edx
	movl	8(%ebp), %eax
	addl	%edx, %eax
	addl	$12, %eax
	movl	%eax, %ecx
	movl	%ecx, %eax
	shrl	$3, %eax
	addl	$536870912, %eax
	movzbl	(%eax), %edx
	testb	%dl, %dl
	setne	%bl
	movl	%ecx, %eax
	andl	$7, %eax
	addl	$3, %eax
	cmpb	%dl, %al
	setge	%al
	andl	%ebx, %eax
	testb	%al, %al
	je	.L553
	subl	$12, %esp
	pushl	%ecx
	call	__asan_report_load4
.L553:
	movl	8(%ebp), %eax
	movl	-200(%ebp), %edx
	movl	12(%eax,%edx,4), %eax
	movl	%eax, %edx
	movl	%edx, %eax
	addl	%eax, %eax
	addl	%edx, %eax
	sall	$3, %eax
	leal	(%esi,%eax), %edi
	movl	throttles, %ecx
	movl	8(%ebp), %edx
	movl	-200(%ebp), %eax
	movl	12(%edx,%eax,4), %eax
	movl	%eax, %edx
	movl	%edx, %eax
	addl	%eax, %eax
	addl	%edx, %eax
	sall	$3, %eax
	leal	(%ecx,%eax), %esi
	leal	16(%esi), %eax
	movl	%eax, %ecx
	movl	%ecx, %eax
	shrl	$3, %eax
	addl	$536870912, %eax
	movzbl	(%eax), %edx
	testb	%dl, %dl
	setne	%bl
	movl	%ecx, %eax
	andl	$7, %eax
	addl	$3, %eax
	cmpb	%dl, %al
	setge	%al
	andl	%ebx, %eax
	testb	%al, %al
	je	.L554
	subl	$12, %esp
	pushl	%ecx
	call	__asan_report_load4
.L554:
	movl	16(%esi), %edx
	movl	-208(%ebp), %eax
	leal	(%edx,%eax), %esi
	leal	16(%edi), %eax
	movl	%eax, %ecx
	movl	%ecx, %eax
	shrl	$3, %eax
	addl	$536870912, %eax
	movzbl	(%eax), %edx
	testb	%dl, %dl
	setne	%bl
	movl	%ecx, %eax
	andl	$7, %eax
	addl	$3, %eax
	cmpb	%dl, %al
	setge	%al
	andl	%ebx, %eax
	testb	%al, %al
	je	.L555
	subl	$12, %esp
	pushl	%ecx
	call	__asan_report_store4
.L555:
	movl	%esi, 16(%edi)
	addl	$1, -200(%ebp)
.L552:
	movl	8(%ebp), %eax
	addl	$52, %eax
	movl	%eax, %edx
	movl	%edx, %eax
	shrl	$3, %eax
	addl	$536870912, %eax
	movzbl	(%eax), %ecx
	testb	%cl, %cl
	setne	%bl
	movl	%edx, %eax
	andl	$7, %eax
	addl	$3, %eax
	cmpb	%cl, %al
	setge	%al
	andl	%ebx, %eax
	testb	%al, %al
	je	.L556
	subl	$12, %esp
	pushl	%edx
	call	__asan_report_load4
.L556:
	movl	8(%ebp), %eax
	movl	52(%eax), %eax
	cmpl	-200(%ebp), %eax
	jg	.L557
	movl	8(%ebp), %eax
	addl	$92, %eax
	movl	%eax, %edx
	movl	%edx, %eax
	shrl	$3, %eax
	addl	$536870912, %eax
	movzbl	(%eax), %ecx
	testb	%cl, %cl
	setne	%bl
	movl	%edx, %eax
	andl	$7, %eax
	addl	$3, %eax
	cmpb	%cl, %al
	setge	%al
	andl	%ebx, %eax
	testb	%al, %al
	je	.L558
	subl	$12, %esp
	pushl	%edx
	call	__asan_report_load4
.L558:
	movl	8(%ebp), %eax
	movl	92(%eax), %esi
	movl	8(%ebp), %eax
	addl	$88, %eax
	movl	%eax, %ecx
	movl	%ecx, %eax
	shrl	$3, %eax
	addl	$536870912, %eax
	movzbl	(%eax), %edx
	testb	%dl, %dl
	setne	%bl
	movl	%ecx, %eax
	andl	$7, %eax
	addl	$3, %eax
	cmpb	%dl, %al
	setge	%al
	andl	%ebx, %eax
	testb	%al, %al
	je	.L559
	subl	$12, %esp
	pushl	%ecx
	call	__asan_report_load4
.L559:
	movl	8(%ebp), %eax
	movl	88(%eax), %eax
	cmpl	%eax, %esi
	jl	.L560
	subl	$8, %esp
	pushl	12(%ebp)
	pushl	8(%ebp)
	call	finish_connection
	addl	$16, %esp
	jmp	.L499
.L560:
	movl	8(%ebp), %eax
	addl	$80, %eax
	movl	%eax, %edx
	movl	%edx, %eax
	shrl	$3, %eax
	addl	$536870912, %eax
	movzbl	(%eax), %ecx
	testb	%cl, %cl
	setne	%bl
	movl	%edx, %eax
	andl	$7, %eax
	addl	$3, %eax
	cmpb	%cl, %al
	setge	%al
	andl	%ebx, %eax
	testb	%al, %al
	je	.L561
	subl	$12, %esp
	pushl	%edx
	call	__asan_report_load4
.L561:
	movl	8(%ebp), %eax
	movl	80(%eax), %eax
	cmpl	$100, %eax
	jle	.L562
	movl	8(%ebp), %eax
	movl	80(%eax), %eax
	leal	-100(%eax), %edx
	movl	8(%ebp), %eax
	movl	%edx, 80(%eax)
.L562:
	movl	8(%ebp), %eax
	addl	$56, %eax
	movl	%eax, %edx
	movl	%edx, %eax
	shrl	$3, %eax
	addl	$536870912, %eax
	movzbl	(%eax), %ecx
	testb	%cl, %cl
	setne	%bl
	movl	%edx, %eax
	andl	$7, %eax
	addl	$3, %eax
	cmpb	%cl, %al
	setge	%al
	andl	%ebx, %eax
	testb	%al, %al
	je	.L563
	subl	$12, %esp
	pushl	%edx
	call	__asan_report_load4
.L563:
	movl	8(%ebp), %eax
	movl	56(%eax), %eax
	cmpl	$-1, %eax
	je	.L499
	movl	12(%ebp), %eax
	movl	%eax, %edx
	movl	%edx, %eax
	shrl	$3, %eax
	addl	$536870912, %eax
	movzbl	(%eax), %ecx
	testb	%cl, %cl
	setne	%bl
	movl	%edx, %eax
	andl	$7, %eax
	addl	$3, %eax
	cmpb	%cl, %al
	setge	%al
	andl	%ebx, %eax
	testb	%al, %al
	je	.L565
	subl	$12, %esp
	pushl	%edx
	call	__asan_report_load4
.L565:
	movl	12(%ebp), %eax
	movl	(%eax), %esi
	movl	8(%ebp), %eax
	addl	$64, %eax
	movl	%eax, %ecx
	movl	%ecx, %eax
	shrl	$3, %eax
	addl	$536870912, %eax
	movzbl	(%eax), %edx
	testb	%dl, %dl
	setne	%bl
	movl	%ecx, %eax
	andl	$7, %eax
	addl	$3, %eax
	cmpb	%dl, %al
	setge	%al
	andl	%ebx, %eax
	testb	%al, %al
	je	.L566
	subl	$12, %esp
	pushl	%ecx
	call	__asan_report_load4
.L566:
	movl	8(%ebp), %eax
	movl	64(%eax), %eax
	subl	%eax, %esi
	movl	%esi, %eax
	movl	%eax, -204(%ebp)
	cmpl	$0, -204(%ebp)
	jne	.L567
	movl	$1, -204(%ebp)
.L567:
	movl	8(%ebp), %eax
	addl	$8, %eax
	movl	%eax, %edx
	movl	%edx, %eax
	shrl	$3, %eax
	addl	$536870912, %eax
	movzbl	(%eax), %ecx
	testb	%cl, %cl
	setne	%bl
	movl	%edx, %eax
	andl	$7, %eax
	addl	$3, %eax
	cmpb	%cl, %al
	setge	%al
	andl	%ebx, %eax
	testb	%al, %al
	je	.L568
	subl	$12, %esp
	pushl	%edx
	call	__asan_report_load4
.L568:
	movl	8(%ebp), %eax
	movl	8(%eax), %ebx
	leal	168(%ebx), %eax
	movl	%eax, %ecx
	movl	%ecx, %eax
	shrl	$3, %eax
	addl	$536870912, %eax
	movzbl	(%eax), %edx
	testb	%dl, %dl
	setne	%al
	movl	%eax, %esi
	movl	%ecx, %eax
	andl	$7, %eax
	addl	$3, %eax
	cmpb	%dl, %al
	setge	%al
	andl	%esi, %eax
	testb	%al, %al
	je	.L569
	subl	$12, %esp
	pushl	%ecx
	call	__asan_report_load4
.L569:
	movl	168(%ebx), %eax
	cltd
	idivl	-204(%ebp)
	movl	%eax, %esi
	movl	8(%ebp), %eax
	addl	$56, %eax
	movl	%eax, %ecx
	movl	%ecx, %eax
	shrl	$3, %eax
	addl	$536870912, %eax
	movzbl	(%eax), %edx
	testb	%dl, %dl
	setne	%bl
	movl	%ecx, %eax
	andl	$7, %eax
	addl	$3, %eax
	cmpb	%dl, %al
	setge	%al
	andl	%ebx, %eax
	testb	%al, %al
	je	.L570
	subl	$12, %esp
	pushl	%ecx
	call	__asan_report_load4
.L570:
	movl	8(%ebp), %eax
	movl	56(%eax), %eax
	cmpl	%eax, %esi
	jle	.L499
	movl	8(%ebp), %eax
	movl	%eax, %edx
	movl	%edx, %eax
	shrl	$3, %eax
	addl	$536870912, %eax
	movzbl	(%eax), %ecx
	testb	%cl, %cl
	setne	%bl
	movl	%edx, %eax
	andl	$7, %eax
	addl	$3, %eax
	cmpb	%cl, %al
	setge	%al
	andl	%ebx, %eax
	testb	%al, %al
	je	.L571
	subl	$12, %esp
	pushl	%edx
	call	__asan_report_store4
.L571:
	movl	8(%ebp), %eax
	movl	$3, (%eax)
	movl	-196(%ebp), %eax
	addl	$448, %eax
	movl	%eax, %edx
	movl	%edx, %eax
	shrl	$3, %eax
	addl	$536870912, %eax
	movzbl	(%eax), %ecx
	testb	%cl, %cl
	setne	%bl
	movl	%edx, %eax
	andl	$7, %eax
	addl	$3, %eax
	cmpb	%cl, %al
	setge	%al
	andl	%ebx, %eax
	testb	%al, %al
	je	.L572
	subl	$12, %esp
	pushl	%edx
	call	__asan_report_load4
.L572:
	movl	-196(%ebp), %eax
	movl	448(%eax), %eax
	subl	$12, %esp
	pushl	%eax
	call	fdwatch_del_fd
	addl	$16, %esp
	movl	8(%ebp), %eax
	addl	$8, %eax
	movl	%eax, %edx
	movl	%edx, %eax
	shrl	$3, %eax
	addl	$536870912, %eax
	movzbl	(%eax), %ecx
	testb	%cl, %cl
	setne	%bl
	movl	%edx, %eax
	andl	$7, %eax
	addl	$3, %eax
	cmpb	%cl, %al
	setge	%al
	andl	%ebx, %eax
	testb	%al, %al
	je	.L573
	subl	$12, %esp
	pushl	%edx
	call	__asan_report_load4
.L573:
	movl	8(%ebp), %eax
	movl	8(%eax), %ebx
	leal	168(%ebx), %eax
	movl	%eax, %ecx
	movl	%ecx, %eax
	shrl	$3, %eax
	addl	$536870912, %eax
	movzbl	(%eax), %edx
	testb	%dl, %dl
	setne	%al
	movl	%eax, %esi
	movl	%ecx, %eax
	andl	$7, %eax
	addl	$3, %eax
	cmpb	%dl, %al
	setge	%al
	andl	%esi, %eax
	testb	%al, %al
	je	.L574
	subl	$12, %esp
	pushl	%ecx
	call	__asan_report_load4
.L574:
	movl	168(%ebx), %esi
	movl	8(%ebp), %eax
	addl	$56, %eax
	movl	%eax, %ecx
	movl	%ecx, %eax
	shrl	$3, %eax
	addl	$536870912, %eax
	movzbl	(%eax), %edx
	testb	%dl, %dl
	setne	%bl
	movl	%ecx, %eax
	andl	$7, %eax
	addl	$3, %eax
	cmpb	%dl, %al
	setge	%al
	andl	%ebx, %eax
	testb	%al, %al
	je	.L575
	subl	$12, %esp
	pushl	%ecx
	call	__asan_report_load4
.L575:
	movl	8(%ebp), %eax
	movl	56(%eax), %edi
	movl	%esi, %eax
	cltd
	idivl	%edi
	subl	-204(%ebp), %eax
	movl	%eax, -188(%ebp)
	movl	8(%ebp), %eax
	movl	-220(%ebp), %edi
	movl	%eax, -128(%edi)
	movl	8(%ebp), %eax
	addl	$72, %eax
	movl	%eax, %edx
	movl	%edx, %eax
	shrl	$3, %eax
	addl	$536870912, %eax
	movzbl	(%eax), %ecx
	testb	%cl, %cl
	setne	%bl
	movl	%edx, %eax
	andl	$7, %eax
	addl	$3, %eax
	cmpb	%cl, %al
	setge	%al
	andl	%ebx, %eax
	testb	%al, %al
	je	.L576
	subl	$12, %esp
	pushl	%edx
	call	__asan_report_load4
.L576:
	movl	8(%ebp), %eax
	movl	72(%eax), %eax
	testl	%eax, %eax
	je	.L577
	subl	$8, %esp
	pushl	$.LC127
	pushl	$3
	call	syslog
	addl	$16, %esp
.L577:
	cmpl	$0, -188(%ebp)
	jle	.L578
	movl	-188(%ebp), %eax
	imull	$1000, %eax, %eax
	jmp	.L579
.L578:
	movl	$500, %eax
.L579:
	subl	$12, %esp
	pushl	$0
	pushl	%eax
	movl	-220(%ebp), %eax
	pushl	-128(%eax)
	pushl	$wakeup_connection
	pushl	12(%ebp)
	call	tmr_create
	addl	$32, %esp
	movl	%eax, %ebx
	movl	8(%ebp), %eax
	addl	$72, %eax
	movl	%eax, %edx
	movl	%edx, %eax
	shrl	$3, %eax
	addl	$536870912, %eax
	movzbl	(%eax), %ecx
	testb	%cl, %cl
	setne	%al
	movl	%eax, %esi
	movl	%edx, %eax
	andl	$7, %eax
	addl	$3, %eax
	cmpb	%cl, %al
	setge	%al
	andl	%esi, %eax
	testb	%al, %al
	je	.L580
	subl	$12, %esp
	pushl	%edx
	call	__asan_report_store4
.L580:
	movl	8(%ebp), %eax
	movl	%ebx, 72(%eax)
	movl	8(%ebp), %eax
	movl	72(%eax), %eax
	testl	%eax, %eax
	jne	.L499
	subl	$8, %esp
	pushl	$.LC128
	pushl	$2
	call	syslog
	addl	$16, %esp
	call	__asan_handle_no_return
	subl	$12, %esp
	pushl	$1
	call	exit
.L499:
	movl	-224(%ebp), %edi
	cmpl	%edi, -248(%ebp)
	je	.L497
	movl	-224(%ebp), %eax
	movl	$1172321806, (%eax)
	movl	-236(%ebp), %eax
	movl	$-168430091, 536870912(%eax)
	movl	$-168430091, 536870916(%eax)
	movl	$-168430091, 536870920(%eax)
	movl	$-168430091, 536870924(%eax)
	movl	$-168430091, 536870928(%eax)
	jmp	.L498
.L497:
	movl	-236(%ebp), %eax
	movl	$0, 536870912(%eax)
	movl	$0, 536870916(%eax)
	movl	$0, 536870920(%eax)
	movl	$0, 536870924(%eax)
	movl	$0, 536870928(%eax)
.L498:
	leal	-12(%ebp), %esp
	popl	%ebx
	.cfi_restore 3
	popl	%esi
	.cfi_restore 6
	popl	%edi
	.cfi_restore 7
	popl	%ebp
	.cfi_restore 5
	.cfi_def_cfa 4, 4
	ret
	.cfi_endproc
.LFE19:
	.size	handle_send, .-handle_send
	.section	.rodata
.LC130:
	.string	"1 32 4096 3 buf "
	.text
	.type	handle_linger, @function
handle_linger:
.LASANPC20:
.LFB20:
	.cfi_startproc
	pushl	%ebp
	.cfi_def_cfa_offset 8
	.cfi_offset 5, -8
	movl	%esp, %ebp
	.cfi_def_cfa_register 5
	pushl	%edi
	pushl	%esi
	pushl	%ebx
	subl	$4252, %esp
	.cfi_offset 7, -12
	.cfi_offset 6, -16
	.cfi_offset 3, -20
	movl	8(%ebp), %eax
	movl	%eax, -4236(%ebp)
	movl	12(%ebp), %eax
	movl	%eax, -4240(%ebp)
	leal	-4216(%ebp), %ebx
	movl	%ebx, -4244(%ebp)
	cmpl	$0, __asan_option_detect_stack_use_after_return
	je	.L582
	subl	$8, %esp
	pushl	%ebx
	pushl	$4188
	call	__asan_stack_malloc_7
	addl	$16, %esp
	movl	%eax, %ebx
.L582:
	leal	4192(%ebx), %eax
	movl	%eax, -4248(%ebp)
	movl	$1102416563, (%ebx)
	movl	$.LC130, 4(%ebx)
	movl	$.LASANPC20, 8(%ebx)
	movl	%ebx, %eax
	shrl	$3, %eax
	movl	%eax, -4252(%ebp)
	movl	$-235802127, 536870912(%eax)
	movl	$-202116109, 536871428(%eax)
	movl	%gs:20, %eax
	movl	%eax, -28(%ebp)
	xorl	%eax, %eax
	movl	-4236(%ebp), %eax
	addl	$8, %eax
	movl	%eax, %edx
	movl	%edx, %eax
	shrl	$3, %eax
	addl	$536870912, %eax
	movzbl	(%eax), %ecx
	testb	%cl, %cl
	setne	%al
	movl	%eax, %esi
	movl	%edx, %eax
	andl	$7, %eax
	addl	$3, %eax
	cmpb	%cl, %al
	setge	%al
	andl	%esi, %eax
	testb	%al, %al
	je	.L586
	subl	$12, %esp
	pushl	%edx
	call	__asan_report_load4
.L586:
	movl	-4236(%ebp), %eax
	movl	8(%eax), %esi
	leal	448(%esi), %eax
	movl	%eax, %ecx
	movl	%ecx, %eax
	shrl	$3, %eax
	addl	$536870912, %eax
	movzbl	(%eax), %edx
	testb	%dl, %dl
	setne	%al
	movl	%eax, %edi
	movl	%ecx, %eax
	andl	$7, %eax
	addl	$3, %eax
	cmpb	%dl, %al
	setge	%al
	andl	%edi, %eax
	testb	%al, %al
	je	.L587
	subl	$12, %esp
	pushl	%ecx
	call	__asan_report_load4
.L587:
	movl	448(%esi), %eax
	subl	$4, %esp
	pushl	$4096
	movl	-4248(%ebp), %edx
	subl	$4160, %edx
	pushl	%edx
	pushl	%eax
	call	read
	addl	$16, %esp
	movl	%eax, -4220(%ebp)
	cmpl	$0, -4220(%ebp)
	jns	.L588
	call	__errno_location
	movl	%eax, %esi
	movl	%esi, %edx
	movl	%edx, %eax
	shrl	$3, %eax
	addl	$536870912, %eax
	movzbl	(%eax), %ecx
	testb	%cl, %cl
	setne	%al
	movl	%eax, %edi
	movl	%edx, %eax
	andl	$7, %eax
	addl	$3, %eax
	cmpb	%cl, %al
	setge	%al
	andl	%edi, %eax
	testb	%al, %al
	je	.L589
	subl	$12, %esp
	pushl	%edx
	call	__asan_report_load4
.L589:
	movl	(%esi), %eax
	cmpl	$4, %eax
	je	.L585
	call	__errno_location
	movl	%eax, %esi
	movl	%esi, %edx
	movl	%edx, %eax
	shrl	$3, %eax
	addl	$536870912, %eax
	movzbl	(%eax), %ecx
	testb	%cl, %cl
	setne	%al
	movl	%eax, %edi
	movl	%edx, %eax
	andl	$7, %eax
	addl	$3, %eax
	cmpb	%cl, %al
	setge	%al
	andl	%edi, %eax
	testb	%al, %al
	je	.L591
	subl	$12, %esp
	pushl	%edx
	call	__asan_report_load4
.L591:
	movl	(%esi), %eax
	cmpl	$11, %eax
	je	.L585
.L588:
	cmpl	$0, -4220(%ebp)
	jg	.L585
	subl	$8, %esp
	pushl	-4240(%ebp)
	pushl	-4236(%ebp)
	call	really_clear_connection
	addl	$16, %esp
.L585:
	cmpl	%ebx, -4244(%ebp)
	je	.L583
	movl	$1172321806, (%ebx)
	subl	$4, %esp
	pushl	-4244(%ebp)
	pushl	$4188
	pushl	%ebx
	call	__asan_stack_free_7
	addl	$16, %esp
	jmp	.L584
.L583:
	movl	-4252(%ebp), %eax
	movl	$0, 536870912(%eax)
	movl	$0, 536871428(%eax)
.L584:
	movl	-28(%ebp), %eax
	xorl	%gs:20, %eax
	je	.L594
	call	__stack_chk_fail
.L594:
	leal	-12(%ebp), %esp
	popl	%ebx
	.cfi_restore 3
	popl	%esi
	.cfi_restore 6
	popl	%edi
	.cfi_restore 7
	popl	%ebp
	.cfi_restore 5
	.cfi_def_cfa 4, 4
	ret
	.cfi_endproc
.LFE20:
	.size	handle_linger, .-handle_linger
	.section	.rodata
	.align 32
.LC131:
	.string	"throttle sending count was negative - shouldn't happen!"
	.zero	40
	.text
	.type	check_throttles, @function
check_throttles:
.LASANPC21:
.LFB21:
	.cfi_startproc
	pushl	%ebp
	.cfi_def_cfa_offset 8
	.cfi_offset 5, -8
	movl	%esp, %ebp
	.cfi_def_cfa_register 5
	pushl	%edi
	pushl	%esi
	pushl	%ebx
	subl	$44, %esp
	.cfi_offset 7, -12
	.cfi_offset 6, -16
	.cfi_offset 3, -20
	movl	8(%ebp), %eax
	addl	$52, %eax
	movl	%eax, %edx
	shrl	$3, %edx
	addl	$536870912, %edx
	movzbl	(%edx), %edx
	testb	%dl, %dl
	setne	%cl
	movl	%eax, %ebx
	andl	$7, %ebx
	addl	$3, %ebx
	cmpb	%dl, %bl
	setge	%dl
	andl	%ecx, %edx
	testb	%dl, %dl
	je	.L596
	subl	$12, %esp
	pushl	%eax
	call	__asan_report_store4
.L596:
	movl	8(%ebp), %eax
	movl	$0, 52(%eax)
	movl	8(%ebp), %eax
	addl	$60, %eax
	movl	%eax, %edx
	shrl	$3, %edx
	addl	$536870912, %edx
	movzbl	(%edx), %edx
	testb	%dl, %dl
	setne	%cl
	movl	%eax, %ebx
	andl	$7, %ebx
	addl	$3, %ebx
	cmpb	%dl, %bl
	setge	%dl
	andl	%ecx, %edx
	testb	%dl, %dl
	je	.L597
	subl	$12, %esp
	pushl	%eax
	call	__asan_report_store4
.L597:
	movl	8(%ebp), %eax
	movl	$-1, 60(%eax)
	movl	8(%ebp), %eax
	movl	60(%eax), %edi
	movl	8(%ebp), %eax
	addl	$56, %eax
	movl	%eax, %edx
	shrl	$3, %edx
	addl	$536870912, %edx
	movzbl	(%edx), %edx
	testb	%dl, %dl
	setne	%bl
	movl	%eax, %esi
	andl	$7, %esi
	addl	$3, %esi
	movl	%esi, %ecx
	cmpb	%dl, %cl
	setge	%dl
	andl	%ebx, %edx
	testb	%dl, %dl
	je	.L598
	subl	$12, %esp
	pushl	%eax
	call	__asan_report_store4
.L598:
	movl	8(%ebp), %eax
	movl	%edi, 56(%eax)
	movl	$0, -32(%ebp)
	jmp	.L599
.L629:
	movl	8(%ebp), %eax
	addl	$8, %eax
	movl	%eax, %edx
	shrl	$3, %edx
	addl	$536870912, %edx
	movzbl	(%edx), %edx
	testb	%dl, %dl
	setne	%cl
	movl	%eax, %ebx
	andl	$7, %ebx
	addl	$3, %ebx
	cmpb	%dl, %bl
	setge	%dl
	andl	%ecx, %edx
	testb	%dl, %dl
	je	.L600
	subl	$12, %esp
	pushl	%eax
	call	__asan_report_load4
.L600:
	movl	8(%ebp), %eax
	movl	8(%eax), %edx
	leal	188(%edx), %eax
	movl	%eax, %ecx
	shrl	$3, %ecx
	addl	$536870912, %ecx
	movzbl	(%ecx), %ecx
	testb	%cl, %cl
	setne	%bl
	movl	%ebx, %edi
	movl	%eax, %esi
	andl	$7, %esi
	addl	$3, %esi
	movl	%esi, %ebx
	cmpb	%cl, %bl
	setge	%cl
	andl	%edi, %ecx
	testb	%cl, %cl
	je	.L601
	subl	$12, %esp
	pushl	%eax
	call	__asan_report_load4
.L601:
	movl	188(%edx), %eax
	movl	%eax, -44(%ebp)
	movl	throttles, %ecx
	movl	-32(%ebp), %edx
	movl	%edx, %eax
	addl	%eax, %eax
	addl	%edx, %eax
	sall	$3, %eax
	addl	%eax, %ecx
	movl	%ecx, %eax
	movl	%eax, %edx
	shrl	$3, %edx
	addl	$536870912, %edx
	movzbl	(%edx), %edx
	testb	%dl, %dl
	setne	%bl
	movl	%ebx, %esi
	movl	%eax, %edi
	andl	$7, %edi
	addl	$3, %edi
	movl	%edi, %ebx
	cmpb	%dl, %bl
	setge	%dl
	andl	%esi, %edx
	testb	%dl, %dl
	je	.L602
	subl	$12, %esp
	pushl	%eax
	call	__asan_report_load4
.L602:
	movl	(%ecx), %eax
	subl	$8, %esp
	pushl	-44(%ebp)
	pushl	%eax
	call	match
	addl	$16, %esp
	testl	%eax, %eax
	je	.L603
	movl	throttles, %ecx
	movl	-32(%ebp), %edx
	movl	%edx, %eax
	addl	%eax, %eax
	addl	%edx, %eax
	sall	$3, %eax
	leal	(%ecx,%eax), %edx
	leal	12(%edx), %eax
	movl	%eax, %ecx
	shrl	$3, %ecx
	addl	$536870912, %ecx
	movzbl	(%ecx), %ecx
	testb	%cl, %cl
	setne	%bl
	movl	%ebx, %edi
	movl	%eax, %esi
	andl	$7, %esi
	addl	$3, %esi
	movl	%esi, %ebx
	cmpb	%cl, %bl
	setge	%cl
	andl	%edi, %ecx
	testb	%cl, %cl
	je	.L604
	subl	$12, %esp
	pushl	%eax
	call	__asan_report_load4
.L604:
	movl	12(%edx), %eax
	movl	%eax, -44(%ebp)
	movl	throttles, %ecx
	movl	-32(%ebp), %edx
	movl	%edx, %eax
	addl	%eax, %eax
	addl	%edx, %eax
	sall	$3, %eax
	leal	(%ecx,%eax), %edx
	leal	4(%edx), %eax
	movl	%eax, %ecx
	shrl	$3, %ecx
	addl	$536870912, %ecx
	movzbl	(%ecx), %ecx
	testb	%cl, %cl
	setne	%bl
	movl	%ebx, %esi
	movl	%eax, %edi
	andl	$7, %edi
	addl	$3, %edi
	movl	%edi, %ebx
	cmpb	%cl, %bl
	setge	%cl
	andl	%esi, %ecx
	testb	%cl, %cl
	je	.L605
	subl	$12, %esp
	pushl	%eax
	call	__asan_report_load4
.L605:
	movl	4(%edx), %eax
	addl	%eax, %eax
	cmpl	%eax, -44(%ebp)
	jle	.L606
	movl	$0, %eax
	jmp	.L607
.L606:
	movl	throttles, %ecx
	movl	-32(%ebp), %edx
	movl	%edx, %eax
	addl	%eax, %eax
	addl	%edx, %eax
	sall	$3, %eax
	leal	(%ecx,%eax), %edx
	leal	12(%edx), %eax
	movl	%eax, %ecx
	shrl	$3, %ecx
	addl	$536870912, %ecx
	movzbl	(%ecx), %ecx
	testb	%cl, %cl
	setne	%bl
	movl	%ebx, %edi
	movl	%eax, %esi
	andl	$7, %esi
	addl	$3, %esi
	movl	%esi, %ebx
	cmpb	%cl, %bl
	setge	%cl
	andl	%edi, %ecx
	testb	%cl, %cl
	je	.L608
	subl	$12, %esp
	pushl	%eax
	call	__asan_report_load4
.L608:
	movl	12(%edx), %eax
	movl	%eax, -44(%ebp)
	movl	throttles, %ecx
	movl	-32(%ebp), %edx
	movl	%edx, %eax
	addl	%eax, %eax
	addl	%edx, %eax
	sall	$3, %eax
	leal	(%ecx,%eax), %edx
	leal	8(%edx), %eax
	movl	%eax, %ecx
	shrl	$3, %ecx
	addl	$536870912, %ecx
	movzbl	(%ecx), %ecx
	testb	%cl, %cl
	setne	%bl
	movl	%ebx, %esi
	movl	%eax, %edi
	andl	$7, %edi
	addl	$3, %edi
	movl	%edi, %ebx
	cmpb	%cl, %bl
	setge	%cl
	andl	%esi, %ecx
	testb	%cl, %cl
	je	.L609
	subl	$12, %esp
	pushl	%eax
	call	__asan_report_load4
.L609:
	movl	8(%edx), %eax
	cmpl	%eax, -44(%ebp)
	jge	.L610
	movl	$0, %eax
	jmp	.L607
.L610:
	movl	throttles, %ecx
	movl	-32(%ebp), %edx
	movl	%edx, %eax
	addl	%eax, %eax
	addl	%edx, %eax
	sall	$3, %eax
	leal	(%ecx,%eax), %edx
	leal	20(%edx), %eax
	movl	%eax, %ecx
	shrl	$3, %ecx
	addl	$536870912, %ecx
	movzbl	(%ecx), %ecx
	testb	%cl, %cl
	setne	%bl
	movl	%ebx, %edi
	movl	%eax, %esi
	andl	$7, %esi
	addl	$3, %esi
	movl	%esi, %ebx
	cmpb	%cl, %bl
	setge	%cl
	andl	%edi, %ecx
	testb	%cl, %cl
	je	.L611
	subl	$12, %esp
	pushl	%eax
	call	__asan_report_load4
.L611:
	movl	20(%edx), %eax
	testl	%eax, %eax
	jns	.L612
	subl	$8, %esp
	pushl	$.LC131
	pushl	$3
	call	syslog
	addl	$16, %esp
	movl	throttles, %ecx
	movl	-32(%ebp), %edx
	movl	%edx, %eax
	addl	%eax, %eax
	addl	%edx, %eax
	sall	$3, %eax
	leal	(%ecx,%eax), %edx
	leal	20(%edx), %eax
	movl	%eax, %ecx
	shrl	$3, %ecx
	addl	$536870912, %ecx
	movzbl	(%ecx), %ecx
	testb	%cl, %cl
	setne	%bl
	movl	%ebx, %edi
	movl	%eax, %esi
	andl	$7, %esi
	addl	$3, %esi
	movl	%esi, %ebx
	cmpb	%cl, %bl
	setge	%cl
	andl	%edi, %ecx
	testb	%cl, %cl
	je	.L613
	subl	$12, %esp
	pushl	%eax
	call	__asan_report_store4
.L613:
	movl	$0, 20(%edx)
.L612:
	movl	8(%ebp), %eax
	addl	$52, %eax
	movl	%eax, %edx
	shrl	$3, %edx
	addl	$536870912, %edx
	movzbl	(%edx), %edx
	testb	%dl, %dl
	setne	%cl
	movl	%eax, %ebx
	andl	$7, %ebx
	addl	$3, %ebx
	cmpb	%dl, %bl
	setge	%dl
	andl	%ecx, %edx
	testb	%dl, %dl
	je	.L614
	subl	$12, %esp
	pushl	%eax
	call	__asan_report_load4
.L614:
	movl	8(%ebp), %eax
	movl	52(%eax), %eax
	leal	1(%eax), %ecx
	movl	8(%ebp), %edx
	movl	%ecx, 52(%edx)
	leal	0(,%eax,4), %ecx
	movl	8(%ebp), %edx
	addl	%ecx, %edx
	addl	$12, %edx
	movl	%edx, %ecx
	shrl	$3, %ecx
	addl	$536870912, %ecx
	movzbl	(%ecx), %ecx
	testb	%cl, %cl
	setne	%bl
	movl	%ebx, %edi
	movl	%edx, %esi
	andl	$7, %esi
	addl	$3, %esi
	movl	%esi, %ebx
	cmpb	%cl, %bl
	setge	%cl
	andl	%edi, %ecx
	testb	%cl, %cl
	je	.L615
	subl	$12, %esp
	pushl	%edx
	call	__asan_report_store4
.L615:
	movl	8(%ebp), %edx
	movl	-32(%ebp), %ecx
	movl	%ecx, 12(%edx,%eax,4)
	movl	throttles, %ecx
	movl	-32(%ebp), %edx
	movl	%edx, %eax
	addl	%eax, %eax
	addl	%edx, %eax
	sall	$3, %eax
	addl	%ecx, %eax
	leal	20(%eax), %edx
	movl	%edx, %ecx
	shrl	$3, %ecx
	addl	$536870912, %ecx
	movzbl	(%ecx), %ecx
	testb	%cl, %cl
	setne	%bl
	movl	%ebx, %edi
	movl	%edx, %esi
	andl	$7, %esi
	addl	$3, %esi
	movl	%esi, %ebx
	cmpb	%cl, %bl
	setge	%cl
	andl	%edi, %ecx
	testb	%cl, %cl
	je	.L616
	subl	$12, %esp
	pushl	%edx
	call	__asan_report_load4
.L616:
	movl	20(%eax), %edx
	addl	$1, %edx
	movl	%edx, 20(%eax)
	movl	throttles, %ecx
	movl	-32(%ebp), %edx
	movl	%edx, %eax
	addl	%eax, %eax
	addl	%edx, %eax
	sall	$3, %eax
	leal	(%ecx,%eax), %edx
	leal	4(%edx), %eax
	movl	%eax, %ecx
	shrl	$3, %ecx
	addl	$536870912, %ecx
	movzbl	(%ecx), %ecx
	testb	%cl, %cl
	setne	%bl
	movl	%ebx, %edi
	movl	%eax, %esi
	andl	$7, %esi
	addl	$3, %esi
	movl	%esi, %ebx
	cmpb	%cl, %bl
	setge	%cl
	andl	%edi, %ecx
	testb	%cl, %cl
	je	.L617
	subl	$12, %esp
	pushl	%eax
	call	__asan_report_load4
.L617:
	movl	4(%edx), %eax
	movl	%eax, -44(%ebp)
	movl	throttles, %ecx
	movl	-32(%ebp), %edx
	movl	%edx, %eax
	addl	%eax, %eax
	addl	%edx, %eax
	sall	$3, %eax
	leal	(%ecx,%eax), %edx
	leal	20(%edx), %eax
	movl	%eax, %ecx
	shrl	$3, %ecx
	addl	$536870912, %ecx
	movzbl	(%ecx), %ecx
	testb	%cl, %cl
	setne	%bl
	movl	%ebx, %esi
	movl	%eax, %edi
	andl	$7, %edi
	addl	$3, %edi
	movl	%edi, %ebx
	cmpb	%cl, %bl
	setge	%cl
	andl	%esi, %ecx
	testb	%cl, %cl
	je	.L618
	subl	$12, %esp
	pushl	%eax
	call	__asan_report_load4
.L618:
	movl	20(%edx), %edi
	movl	-44(%ebp), %eax
	cltd
	idivl	%edi
	movl	%eax, -28(%ebp)
	movl	8(%ebp), %eax
	addl	$56, %eax
	movl	%eax, %edx
	shrl	$3, %edx
	addl	$536870912, %edx
	movzbl	(%edx), %edx
	testb	%dl, %dl
	setne	%cl
	movl	%eax, %ebx
	andl	$7, %ebx
	addl	$3, %ebx
	cmpb	%dl, %bl
	setge	%dl
	andl	%ecx, %edx
	testb	%dl, %dl
	je	.L619
	subl	$12, %esp
	pushl	%eax
	call	__asan_report_load4
.L619:
	movl	8(%ebp), %eax
	movl	56(%eax), %eax
	cmpl	$-1, %eax
	jne	.L620
	movl	8(%ebp), %eax
	movl	-28(%ebp), %edx
	movl	%edx, 56(%eax)
	jmp	.L621
.L620:
	movl	8(%ebp), %eax
	addl	$56, %eax
	movl	%eax, %edx
	shrl	$3, %edx
	addl	$536870912, %edx
	movzbl	(%edx), %edx
	testb	%dl, %dl
	setne	%cl
	movl	%eax, %ebx
	andl	$7, %ebx
	addl	$3, %ebx
	cmpb	%dl, %bl
	setge	%dl
	andl	%ecx, %edx
	testb	%dl, %dl
	je	.L622
	subl	$12, %esp
	pushl	%eax
	call	__asan_report_load4
.L622:
	movl	8(%ebp), %eax
	movl	56(%eax), %edx
	movl	-28(%ebp), %eax
	cmpl	%eax, %edx
	cmovg	%eax, %edx
	movl	8(%ebp), %eax
	movl	%edx, 56(%eax)
.L621:
	movl	throttles, %ecx
	movl	-32(%ebp), %edx
	movl	%edx, %eax
	addl	%eax, %eax
	addl	%edx, %eax
	sall	$3, %eax
	leal	(%ecx,%eax), %edx
	leal	8(%edx), %eax
	movl	%eax, %ecx
	shrl	$3, %ecx
	addl	$536870912, %ecx
	movzbl	(%ecx), %ecx
	testb	%cl, %cl
	setne	%bl
	movl	%ebx, %edi
	movl	%eax, %esi
	andl	$7, %esi
	addl	$3, %esi
	movl	%esi, %ebx
	cmpb	%cl, %bl
	setge	%cl
	andl	%edi, %ecx
	testb	%cl, %cl
	je	.L623
	subl	$12, %esp
	pushl	%eax
	call	__asan_report_load4
.L623:
	movl	8(%edx), %eax
	movl	%eax, -28(%ebp)
	movl	8(%ebp), %eax
	addl	$60, %eax
	movl	%eax, %edx
	shrl	$3, %edx
	addl	$536870912, %edx
	movzbl	(%edx), %edx
	testb	%dl, %dl
	setne	%cl
	movl	%eax, %ebx
	andl	$7, %ebx
	addl	$3, %ebx
	cmpb	%dl, %bl
	setge	%dl
	andl	%ecx, %edx
	testb	%dl, %dl
	je	.L624
	subl	$12, %esp
	pushl	%eax
	call	__asan_report_load4
.L624:
	movl	8(%ebp), %eax
	movl	60(%eax), %eax
	cmpl	$-1, %eax
	jne	.L625
	movl	8(%ebp), %eax
	movl	-28(%ebp), %edx
	movl	%edx, 60(%eax)
	jmp	.L603
.L625:
	movl	8(%ebp), %eax
	addl	$60, %eax
	movl	%eax, %edx
	shrl	$3, %edx
	addl	$536870912, %edx
	movzbl	(%edx), %edx
	testb	%dl, %dl
	setne	%cl
	movl	%eax, %ebx
	andl	$7, %ebx
	addl	$3, %ebx
	cmpb	%dl, %bl
	setge	%dl
	andl	%ecx, %edx
	testb	%dl, %dl
	je	.L626
	subl	$12, %esp
	pushl	%eax
	call	__asan_report_load4
.L626:
	movl	8(%ebp), %eax
	movl	60(%eax), %edx
	movl	-28(%ebp), %eax
	cmpl	%eax, %edx
	cmovl	%eax, %edx
	movl	8(%ebp), %eax
	movl	%edx, 60(%eax)
.L603:
	addl	$1, -32(%ebp)
.L599:
	movl	numthrottles, %eax
	cmpl	%eax, -32(%ebp)
	jge	.L627
	movl	8(%ebp), %eax
	addl	$52, %eax
	movl	%eax, %edx
	shrl	$3, %edx
	addl	$536870912, %edx
	movzbl	(%edx), %edx
	testb	%dl, %dl
	setne	%cl
	movl	%eax, %ebx
	andl	$7, %ebx
	addl	$3, %ebx
	cmpb	%dl, %bl
	setge	%dl
	andl	%ecx, %edx
	testb	%dl, %dl
	je	.L628
	subl	$12, %esp
	pushl	%eax
	call	__asan_report_load4
.L628:
	movl	8(%ebp), %eax
	movl	52(%eax), %eax
	cmpl	$9, %eax
	jle	.L629
.L627:
	movl	$1, %eax
.L607:
	leal	-12(%ebp), %esp
	popl	%ebx
	.cfi_restore 3
	popl	%esi
	.cfi_restore 6
	popl	%edi
	.cfi_restore 7
	popl	%ebp
	.cfi_restore 5
	.cfi_def_cfa 4, 4
	ret
	.cfi_endproc
.LFE21:
	.size	check_throttles, .-check_throttles
	.type	clear_throttles, @function
clear_throttles:
.LASANPC22:
.LFB22:
	.cfi_startproc
	pushl	%ebp
	.cfi_def_cfa_offset 8
	.cfi_offset 5, -8
	movl	%esp, %ebp
	.cfi_def_cfa_register 5
	pushl	%edi
	pushl	%esi
	pushl	%ebx
	subl	$28, %esp
	.cfi_offset 7, -12
	.cfi_offset 6, -16
	.cfi_offset 3, -20
	movl	$0, -28(%ebp)
	jmp	.L631
.L635:
	movl	throttles, %edi
	movl	-28(%ebp), %eax
	leal	0(,%eax,4), %edx
	movl	8(%ebp), %eax
	addl	%edx, %eax
	addl	$12, %eax
	movl	%eax, %edx
	shrl	$3, %edx
	addl	$536870912, %edx
	movzbl	(%edx), %edx
	testb	%dl, %dl
	setne	%bl
	movl	%eax, %esi
	andl	$7, %esi
	addl	$3, %esi
	movl	%esi, %ecx
	cmpb	%dl, %cl
	setge	%dl
	andl	%ebx, %edx
	testb	%dl, %dl
	je	.L632
	subl	$12, %esp
	pushl	%eax
	call	__asan_report_load4
.L632:
	movl	8(%ebp), %eax
	movl	-28(%ebp), %edx
	movl	12(%eax,%edx,4), %eax
	movl	%eax, %edx
	movl	%edx, %eax
	addl	%eax, %eax
	addl	%edx, %eax
	sall	$3, %eax
	addl	%edi, %eax
	leal	20(%eax), %edx
	movl	%edx, %ecx
	shrl	$3, %ecx
	addl	$536870912, %ecx
	movzbl	(%ecx), %ecx
	testb	%cl, %cl
	setne	%bl
	movl	%ebx, %edi
	movl	%edx, %esi
	andl	$7, %esi
	addl	$3, %esi
	movl	%esi, %ebx
	cmpb	%cl, %bl
	setge	%cl
	andl	%edi, %ecx
	testb	%cl, %cl
	je	.L633
	subl	$12, %esp
	pushl	%edx
	call	__asan_report_load4
.L633:
	movl	20(%eax), %edx
	subl	$1, %edx
	movl	%edx, 20(%eax)
	addl	$1, -28(%ebp)
.L631:
	movl	8(%ebp), %eax
	addl	$52, %eax
	movl	%eax, %edx
	shrl	$3, %edx
	addl	$536870912, %edx
	movzbl	(%edx), %edx
	testb	%dl, %dl
	setne	%cl
	movl	%eax, %ebx
	andl	$7, %ebx
	addl	$3, %ebx
	cmpb	%dl, %bl
	setge	%dl
	andl	%ecx, %edx
	testb	%dl, %dl
	je	.L634
	subl	$12, %esp
	pushl	%eax
	call	__asan_report_load4
.L634:
	movl	8(%ebp), %eax
	movl	52(%eax), %eax
	cmpl	-28(%ebp), %eax
	jg	.L635
	leal	-12(%ebp), %esp
	popl	%ebx
	.cfi_restore 3
	popl	%esi
	.cfi_restore 6
	popl	%edi
	.cfi_restore 7
	popl	%ebp
	.cfi_restore 5
	.cfi_def_cfa 4, 4
	ret
	.cfi_endproc
.LFE22:
	.size	clear_throttles, .-clear_throttles
	.section	.rodata
	.align 32
.LC132:
	.string	"throttle #%d '%.80s' rate %ld greatly exceeding limit %ld; %d sending"
	.zero	58
	.align 32
.LC133:
	.string	"throttle #%d '%.80s' rate %ld exceeding limit %ld; %d sending"
	.zero	34
	.align 32
.LC134:
	.string	"throttle #%d '%.80s' rate %ld lower than minimum %ld; %d sending"
	.zero	63
	.text
	.type	update_throttles, @function
update_throttles:
.LASANPC23:
.LFB23:
	.cfi_startproc
	pushl	%ebp
	.cfi_def_cfa_offset 8
	.cfi_offset 5, -8
	movl	%esp, %ebp
	.cfi_def_cfa_register 5
	pushl	%edi
	pushl	%esi
	pushl	%ebx
	subl	$60, %esp
	.cfi_offset 7, -12
	.cfi_offset 6, -16
	.cfi_offset 3, -20
	movl	$0, -44(%ebp)
	jmp	.L637
.L665:
	movl	throttles, %ecx
	movl	-44(%ebp), %edx
	movl	%edx, %eax
	addl	%eax, %eax
	addl	%edx, %eax
	sall	$3, %eax
	leal	(%ecx,%eax), %edi
	movl	throttles, %ecx
	movl	-44(%ebp), %edx
	movl	%edx, %eax
	addl	%eax, %eax
	addl	%edx, %eax
	sall	$3, %eax
	leal	(%ecx,%eax), %edx
	leal	12(%edx), %eax
	movl	%eax, %ecx
	shrl	$3, %ecx
	addl	$536870912, %ecx
	movzbl	(%ecx), %ecx
	testb	%cl, %cl
	setne	-60(%ebp)
	movl	%eax, %esi
	andl	$7, %esi
	addl	$3, %esi
	movl	%esi, %ebx
	cmpb	%cl, %bl
	setge	%cl
	andb	-60(%ebp), %cl
	testb	%cl, %cl
	je	.L638
	subl	$12, %esp
	pushl	%eax
	call	__asan_report_load4
.L638:
	movl	12(%edx), %eax
	leal	(%eax,%eax), %esi
	movl	throttles, %ecx
	movl	-44(%ebp), %edx
	movl	%edx, %eax
	addl	%eax, %eax
	addl	%edx, %eax
	sall	$3, %eax
	addl	%eax, %ecx
	leal	16(%ecx), %eax
	movl	%eax, %edx
	movl	%edx, %eax
	shrl	$3, %eax
	addl	$536870912, %eax
	movzbl	(%eax), %ebx
	testb	%bl, %bl
	setne	-60(%ebp)
	movl	%edx, %eax
	andl	$7, %eax
	addl	$3, %eax
	cmpb	%bl, %al
	setge	%al
	andb	-60(%ebp), %al
	testb	%al, %al
	je	.L639
	subl	$12, %esp
	pushl	%edx
	call	__asan_report_load4
.L639:
	movl	16(%ecx), %eax
	movl	%eax, %edx
	shrl	$31, %edx
	addl	%edx, %eax
	sarl	%eax
	leal	(%esi,%eax), %ecx
	movl	$1431655766, %edx
	movl	%ecx, %eax
	imull	%edx
	movl	%ecx, %eax
	sarl	$31, %eax
	subl	%eax, %edx
	movl	%edx, -60(%ebp)
	leal	12(%edi), %eax
	movl	%eax, %edx
	shrl	$3, %edx
	addl	$536870912, %edx
	movzbl	(%edx), %edx
	testb	%dl, %dl
	setne	%bl
	movl	%eax, %esi
	andl	$7, %esi
	addl	$3, %esi
	movl	%esi, %ecx
	cmpb	%dl, %cl
	setge	%dl
	andl	%ebx, %edx
	testb	%dl, %dl
	je	.L640
	subl	$12, %esp
	pushl	%eax
	call	__asan_report_store4
.L640:
	movl	-60(%ebp), %eax
	movl	%eax, 12(%edi)
	movl	throttles, %ecx
	movl	-44(%ebp), %edx
	movl	%edx, %eax
	addl	%eax, %eax
	addl	%edx, %eax
	sall	$3, %eax
	leal	(%ecx,%eax), %edx
	leal	16(%edx), %eax
	movl	%eax, %ecx
	shrl	$3, %ecx
	addl	$536870912, %ecx
	movzbl	(%ecx), %ecx
	testb	%cl, %cl
	setne	%bl
	movl	%ebx, %edi
	movl	%eax, %esi
	andl	$7, %esi
	addl	$3, %esi
	movl	%esi, %ebx
	cmpb	%cl, %bl
	setge	%cl
	andl	%edi, %ecx
	testb	%cl, %cl
	je	.L641
	subl	$12, %esp
	pushl	%eax
	call	__asan_report_store4
.L641:
	movl	$0, 16(%edx)
	movl	throttles, %ecx
	movl	-44(%ebp), %edx
	movl	%edx, %eax
	addl	%eax, %eax
	addl	%edx, %eax
	sall	$3, %eax
	leal	(%ecx,%eax), %edx
	leal	12(%edx), %eax
	movl	%eax, %ecx
	shrl	$3, %ecx
	addl	$536870912, %ecx
	movzbl	(%ecx), %ecx
	testb	%cl, %cl
	setne	%bl
	movl	%ebx, %edi
	movl	%eax, %esi
	andl	$7, %esi
	addl	$3, %esi
	movl	%esi, %ebx
	cmpb	%cl, %bl
	setge	%cl
	andl	%edi, %ecx
	testb	%cl, %cl
	je	.L642
	subl	$12, %esp
	pushl	%eax
	call	__asan_report_load4
.L642:
	movl	12(%edx), %eax
	movl	%eax, -60(%ebp)
	movl	throttles, %ecx
	movl	-44(%ebp), %edx
	movl	%edx, %eax
	addl	%eax, %eax
	addl	%edx, %eax
	sall	$3, %eax
	leal	(%ecx,%eax), %edx
	leal	4(%edx), %eax
	movl	%eax, %ecx
	shrl	$3, %ecx
	addl	$536870912, %ecx
	movzbl	(%ecx), %ecx
	testb	%cl, %cl
	setne	%bl
	movl	%ebx, %esi
	movl	%eax, %edi
	andl	$7, %edi
	addl	$3, %edi
	movl	%edi, %ebx
	cmpb	%cl, %bl
	setge	%cl
	andl	%esi, %ecx
	testb	%cl, %cl
	je	.L643
	subl	$12, %esp
	pushl	%eax
	call	__asan_report_load4
.L643:
	movl	4(%edx), %eax
	cmpl	%eax, -60(%ebp)
	jle	.L644
	movl	throttles, %ecx
	movl	-44(%ebp), %edx
	movl	%edx, %eax
	addl	%eax, %eax
	addl	%edx, %eax
	sall	$3, %eax
	leal	(%ecx,%eax), %edx
	leal	20(%edx), %eax
	movl	%eax, %ecx
	shrl	$3, %ecx
	addl	$536870912, %ecx
	movzbl	(%ecx), %ecx
	testb	%cl, %cl
	setne	%bl
	movl	%ebx, %edi
	movl	%eax, %esi
	andl	$7, %esi
	addl	$3, %esi
	movl	%esi, %ebx
	cmpb	%cl, %bl
	setge	%cl
	andl	%edi, %ecx
	testb	%cl, %cl
	je	.L645
	subl	$12, %esp
	pushl	%eax
	call	__asan_report_load4
.L645:
	movl	20(%edx), %eax
	testl	%eax, %eax
	je	.L644
	movl	throttles, %ecx
	movl	-44(%ebp), %edx
	movl	%edx, %eax
	addl	%eax, %eax
	addl	%edx, %eax
	sall	$3, %eax
	leal	(%ecx,%eax), %edx
	leal	12(%edx), %eax
	movl	%eax, %ecx
	shrl	$3, %ecx
	addl	$536870912, %ecx
	movzbl	(%ecx), %ecx
	testb	%cl, %cl
	setne	%bl
	movl	%ebx, %edi
	movl	%eax, %esi
	andl	$7, %esi
	addl	$3, %esi
	movl	%esi, %ebx
	cmpb	%cl, %bl
	setge	%cl
	andl	%edi, %ecx
	testb	%cl, %cl
	je	.L646
	subl	$12, %esp
	pushl	%eax
	call	__asan_report_load4
.L646:
	movl	12(%edx), %eax
	movl	%eax, -60(%ebp)
	movl	throttles, %ecx
	movl	-44(%ebp), %edx
	movl	%edx, %eax
	addl	%eax, %eax
	addl	%edx, %eax
	sall	$3, %eax
	leal	(%ecx,%eax), %edx
	leal	4(%edx), %eax
	movl	%eax, %ecx
	shrl	$3, %ecx
	addl	$536870912, %ecx
	movzbl	(%ecx), %ecx
	testb	%cl, %cl
	setne	%bl
	movl	%ebx, %esi
	movl	%eax, %edi
	andl	$7, %edi
	addl	$3, %edi
	movl	%edi, %ebx
	cmpb	%cl, %bl
	setge	%cl
	andl	%esi, %ecx
	testb	%cl, %cl
	je	.L647
	subl	$12, %esp
	pushl	%eax
	call	__asan_report_load4
.L647:
	movl	4(%edx), %eax
	addl	%eax, %eax
	cmpl	%eax, -60(%ebp)
	jle	.L648
	movl	throttles, %ecx
	movl	-44(%ebp), %edx
	movl	%edx, %eax
	addl	%eax, %eax
	addl	%edx, %eax
	sall	$3, %eax
	leal	(%ecx,%eax), %edx
	leal	20(%edx), %eax
	movl	%eax, %ecx
	shrl	$3, %ecx
	addl	$536870912, %ecx
	movzbl	(%ecx), %ecx
	testb	%cl, %cl
	setne	%bl
	movl	%ebx, %edi
	movl	%eax, %esi
	andl	$7, %esi
	addl	$3, %esi
	movl	%esi, %ebx
	cmpb	%cl, %bl
	setge	%cl
	andl	%edi, %ecx
	testb	%cl, %cl
	je	.L649
	subl	$12, %esp
	pushl	%eax
	call	__asan_report_load4
.L649:
	movl	20(%edx), %eax
	movl	%eax, -60(%ebp)
	movl	throttles, %ecx
	movl	-44(%ebp), %edx
	movl	%edx, %eax
	addl	%eax, %eax
	addl	%edx, %eax
	sall	$3, %eax
	leal	(%ecx,%eax), %edx
	leal	4(%edx), %eax
	movl	%eax, %ecx
	shrl	$3, %ecx
	addl	$536870912, %ecx
	movzbl	(%ecx), %ecx
	testb	%cl, %cl
	setne	%bl
	movl	%ebx, %edi
	movl	%eax, %esi
	andl	$7, %esi
	addl	$3, %esi
	movl	%esi, %ebx
	cmpb	%cl, %bl
	setge	%cl
	andl	%edi, %ecx
	testb	%cl, %cl
	je	.L650
	subl	$12, %esp
	pushl	%eax
	call	__asan_report_load4
.L650:
	movl	4(%edx), %eax
	movl	%eax, -64(%ebp)
	movl	throttles, %ecx
	movl	-44(%ebp), %edx
	movl	%edx, %eax
	addl	%eax, %eax
	addl	%edx, %eax
	sall	$3, %eax
	addl	%eax, %ecx
	leal	12(%ecx), %eax
	movl	%eax, %edx
	movl	%edx, %eax
	shrl	$3, %eax
	addl	$536870912, %eax
	movzbl	(%eax), %ebx
	testb	%bl, %bl
	setne	%al
	movl	%eax, %esi
	movl	%edx, %eax
	andl	$7, %eax
	addl	$3, %eax
	cmpb	%bl, %al
	setge	%al
	andl	%esi, %eax
	testb	%al, %al
	je	.L651
	subl	$12, %esp
	pushl	%edx
	call	__asan_report_load4
.L651:
	movl	12(%ecx), %esi
	movl	throttles, %ecx
	movl	-44(%ebp), %edx
	movl	%edx, %eax
	addl	%eax, %eax
	addl	%edx, %eax
	sall	$3, %eax
	leal	(%ecx,%eax), %ebx
	movl	%ebx, %eax
	movl	%eax, %edx
	movl	%edx, %eax
	shrl	$3, %eax
	addl	$536870912, %eax
	movzbl	(%eax), %ecx
	testb	%cl, %cl
	setne	%al
	movl	%eax, %edi
	movl	%edx, %eax
	andl	$7, %eax
	addl	$3, %eax
	cmpb	%cl, %al
	setge	%al
	andl	%edi, %eax
	testb	%al, %al
	je	.L652
	subl	$12, %esp
	pushl	%edx
	call	__asan_report_load4
.L652:
	movl	(%ebx), %eax
	subl	$4, %esp
	pushl	-60(%ebp)
	pushl	-64(%ebp)
	pushl	%esi
	pushl	%eax
	pushl	-44(%ebp)
	pushl	$.LC132
	pushl	$5
	call	syslog
	addl	$32, %esp
	jmp	.L644
.L648:
	movl	throttles, %ecx
	movl	-44(%ebp), %edx
	movl	%edx, %eax
	addl	%eax, %eax
	addl	%edx, %eax
	sall	$3, %eax
	leal	(%ecx,%eax), %edx
	leal	20(%edx), %eax
	movl	%eax, %ecx
	shrl	$3, %ecx
	addl	$536870912, %ecx
	movzbl	(%ecx), %ecx
	testb	%cl, %cl
	setne	%bl
	movl	%ebx, %edi
	movl	%eax, %esi
	andl	$7, %esi
	addl	$3, %esi
	movl	%esi, %ebx
	cmpb	%cl, %bl
	setge	%cl
	andl	%edi, %ecx
	testb	%cl, %cl
	je	.L653
	subl	$12, %esp
	pushl	%eax
	call	__asan_report_load4
.L653:
	movl	20(%edx), %eax
	movl	%eax, -60(%ebp)
	movl	throttles, %ecx
	movl	-44(%ebp), %edx
	movl	%edx, %eax
	addl	%eax, %eax
	addl	%edx, %eax
	sall	$3, %eax
	leal	(%ecx,%eax), %edx
	leal	4(%edx), %eax
	movl	%eax, %ecx
	shrl	$3, %ecx
	addl	$536870912, %ecx
	movzbl	(%ecx), %ecx
	testb	%cl, %cl
	setne	%bl
	movl	%ebx, %edi
	movl	%eax, %esi
	andl	$7, %esi
	addl	$3, %esi
	movl	%esi, %ebx
	cmpb	%cl, %bl
	setge	%cl
	andl	%edi, %ecx
	testb	%cl, %cl
	je	.L654
	subl	$12, %esp
	pushl	%eax
	call	__asan_report_load4
.L654:
	movl	4(%edx), %eax
	movl	%eax, -64(%ebp)
	movl	throttles, %ecx
	movl	-44(%ebp), %edx
	movl	%edx, %eax
	addl	%eax, %eax
	addl	%edx, %eax
	sall	$3, %eax
	addl	%eax, %ecx
	leal	12(%ecx), %eax
	movl	%eax, %edx
	movl	%edx, %eax
	shrl	$3, %eax
	addl	$536870912, %eax
	movzbl	(%eax), %ebx
	testb	%bl, %bl
	setne	%al
	movl	%eax, %esi
	movl	%edx, %eax
	andl	$7, %eax
	addl	$3, %eax
	cmpb	%bl, %al
	setge	%al
	andl	%esi, %eax
	testb	%al, %al
	je	.L655
	subl	$12, %esp
	pushl	%edx
	call	__asan_report_load4
.L655:
	movl	12(%ecx), %esi
	movl	throttles, %ecx
	movl	-44(%ebp), %edx
	movl	%edx, %eax
	addl	%eax, %eax
	addl	%edx, %eax
	sall	$3, %eax
	leal	(%ecx,%eax), %ebx
	movl	%ebx, %eax
	movl	%eax, %edx
	movl	%edx, %eax
	shrl	$3, %eax
	addl	$536870912, %eax
	movzbl	(%eax), %ecx
	testb	%cl, %cl
	setne	%al
	movl	%eax, %edi
	movl	%edx, %eax
	andl	$7, %eax
	addl	$3, %eax
	cmpb	%cl, %al
	setge	%al
	andl	%edi, %eax
	testb	%al, %al
	je	.L656
	subl	$12, %esp
	pushl	%edx
	call	__asan_report_load4
.L656:
	movl	(%ebx), %eax
	subl	$4, %esp
	pushl	-60(%ebp)
	pushl	-64(%ebp)
	pushl	%esi
	pushl	%eax
	pushl	-44(%ebp)
	pushl	$.LC133
	pushl	$6
	call	syslog
	addl	$32, %esp
.L644:
	movl	throttles, %ecx
	movl	-44(%ebp), %edx
	movl	%edx, %eax
	addl	%eax, %eax
	addl	%edx, %eax
	sall	$3, %eax
	leal	(%ecx,%eax), %edx
	leal	12(%edx), %eax
	movl	%eax, %ecx
	shrl	$3, %ecx
	addl	$536870912, %ecx
	movzbl	(%ecx), %ecx
	testb	%cl, %cl
	setne	%bl
	movl	%ebx, %edi
	movl	%eax, %esi
	andl	$7, %esi
	addl	$3, %esi
	movl	%esi, %ebx
	cmpb	%cl, %bl
	setge	%cl
	andl	%edi, %ecx
	testb	%cl, %cl
	je	.L657
	subl	$12, %esp
	pushl	%eax
	call	__asan_report_load4
.L657:
	movl	12(%edx), %eax
	movl	%eax, -60(%ebp)
	movl	throttles, %ecx
	movl	-44(%ebp), %edx
	movl	%edx, %eax
	addl	%eax, %eax
	addl	%edx, %eax
	sall	$3, %eax
	leal	(%ecx,%eax), %edx
	leal	8(%edx), %eax
	movl	%eax, %ecx
	shrl	$3, %ecx
	addl	$536870912, %ecx
	movzbl	(%ecx), %ecx
	testb	%cl, %cl
	setne	%bl
	movl	%ebx, %esi
	movl	%eax, %edi
	andl	$7, %edi
	addl	$3, %edi
	movl	%edi, %ebx
	cmpb	%cl, %bl
	setge	%cl
	andl	%esi, %ecx
	testb	%cl, %cl
	je	.L658
	subl	$12, %esp
	pushl	%eax
	call	__asan_report_load4
.L658:
	movl	8(%edx), %eax
	cmpl	%eax, -60(%ebp)
	jge	.L659
	movl	throttles, %ecx
	movl	-44(%ebp), %edx
	movl	%edx, %eax
	addl	%eax, %eax
	addl	%edx, %eax
	sall	$3, %eax
	leal	(%ecx,%eax), %edx
	leal	20(%edx), %eax
	movl	%eax, %ecx
	shrl	$3, %ecx
	addl	$536870912, %ecx
	movzbl	(%ecx), %ecx
	testb	%cl, %cl
	setne	%bl
	movl	%ebx, %edi
	movl	%eax, %esi
	andl	$7, %esi
	addl	$3, %esi
	movl	%esi, %ebx
	cmpb	%cl, %bl
	setge	%cl
	andl	%edi, %ecx
	testb	%cl, %cl
	je	.L660
	subl	$12, %esp
	pushl	%eax
	call	__asan_report_load4
.L660:
	movl	20(%edx), %eax
	testl	%eax, %eax
	je	.L659
	movl	throttles, %ecx
	movl	-44(%ebp), %edx
	movl	%edx, %eax
	addl	%eax, %eax
	addl	%edx, %eax
	sall	$3, %eax
	leal	(%ecx,%eax), %edx
	leal	20(%edx), %eax
	movl	%eax, %ecx
	shrl	$3, %ecx
	addl	$536870912, %ecx
	movzbl	(%ecx), %ecx
	testb	%cl, %cl
	setne	%bl
	movl	%ebx, %edi
	movl	%eax, %esi
	andl	$7, %esi
	addl	$3, %esi
	movl	%esi, %ebx
	cmpb	%cl, %bl
	setge	%cl
	andl	%edi, %ecx
	testb	%cl, %cl
	je	.L661
	subl	$12, %esp
	pushl	%eax
	call	__asan_report_load4
.L661:
	movl	20(%edx), %eax
	movl	%eax, -60(%ebp)
	movl	throttles, %ecx
	movl	-44(%ebp), %edx
	movl	%edx, %eax
	addl	%eax, %eax
	addl	%edx, %eax
	sall	$3, %eax
	leal	(%ecx,%eax), %edx
	leal	8(%edx), %eax
	movl	%eax, %ecx
	shrl	$3, %ecx
	addl	$536870912, %ecx
	movzbl	(%ecx), %ecx
	testb	%cl, %cl
	setne	%bl
	movl	%ebx, %edi
	movl	%eax, %esi
	andl	$7, %esi
	addl	$3, %esi
	movl	%esi, %ebx
	cmpb	%cl, %bl
	setge	%cl
	andl	%edi, %ecx
	testb	%cl, %cl
	je	.L662
	subl	$12, %esp
	pushl	%eax
	call	__asan_report_load4
.L662:
	movl	8(%edx), %eax
	movl	%eax, -64(%ebp)
	movl	throttles, %ecx
	movl	-44(%ebp), %edx
	movl	%edx, %eax
	addl	%eax, %eax
	addl	%edx, %eax
	sall	$3, %eax
	addl	%eax, %ecx
	leal	12(%ecx), %eax
	movl	%eax, %edx
	movl	%edx, %eax
	shrl	$3, %eax
	addl	$536870912, %eax
	movzbl	(%eax), %ebx
	testb	%bl, %bl
	setne	%al
	movl	%eax, %esi
	movl	%edx, %eax
	andl	$7, %eax
	addl	$3, %eax
	cmpb	%bl, %al
	setge	%al
	andl	%esi, %eax
	testb	%al, %al
	je	.L663
	subl	$12, %esp
	pushl	%edx
	call	__asan_report_load4
.L663:
	movl	12(%ecx), %esi
	movl	throttles, %ecx
	movl	-44(%ebp), %edx
	movl	%edx, %eax
	addl	%eax, %eax
	addl	%edx, %eax
	sall	$3, %eax
	leal	(%ecx,%eax), %ebx
	movl	%ebx, %eax
	movl	%eax, %edx
	movl	%edx, %eax
	shrl	$3, %eax
	addl	$536870912, %eax
	movzbl	(%eax), %ecx
	testb	%cl, %cl
	setne	%al
	movl	%eax, %edi
	movl	%edx, %eax
	andl	$7, %eax
	addl	$3, %eax
	cmpb	%cl, %al
	setge	%al
	andl	%edi, %eax
	testb	%al, %al
	je	.L664
	subl	$12, %esp
	pushl	%edx
	call	__asan_report_load4
.L664:
	movl	(%ebx), %eax
	subl	$4, %esp
	pushl	-60(%ebp)
	pushl	-64(%ebp)
	pushl	%esi
	pushl	%eax
	pushl	-44(%ebp)
	pushl	$.LC134
	pushl	$5
	call	syslog
	addl	$32, %esp
.L659:
	addl	$1, -44(%ebp)
.L637:
	movl	numthrottles, %eax
	cmpl	%eax, -44(%ebp)
	jl	.L665
	movl	$0, -36(%ebp)
	jmp	.L666
.L681:
	movl	connects, %ecx
	movl	-36(%ebp), %edx
	movl	%edx, %eax
	addl	%eax, %eax
	addl	%edx, %eax
	sall	$5, %eax
	addl	%ecx, %eax
	movl	%eax, -32(%ebp)
	movl	-32(%ebp), %eax
	movl	%eax, %edx
	shrl	$3, %edx
	addl	$536870912, %edx
	movzbl	(%edx), %edx
	testb	%dl, %dl
	setne	%cl
	movl	%eax, %ebx
	andl	$7, %ebx
	addl	$3, %ebx
	cmpb	%dl, %bl
	setge	%dl
	andl	%ecx, %edx
	testb	%dl, %dl
	je	.L667
	subl	$12, %esp
	pushl	%eax
	call	__asan_report_load4
.L667:
	movl	-32(%ebp), %eax
	movl	(%eax), %eax
	cmpl	$2, %eax
	je	.L668
	movl	-32(%ebp), %eax
	movl	(%eax), %eax
	cmpl	$3, %eax
	jne	.L669
.L668:
	movl	-32(%ebp), %eax
	addl	$56, %eax
	movl	%eax, %edx
	shrl	$3, %edx
	addl	$536870912, %edx
	movzbl	(%edx), %edx
	testb	%dl, %dl
	setne	%cl
	movl	%eax, %ebx
	andl	$7, %ebx
	addl	$3, %ebx
	cmpb	%dl, %bl
	setge	%dl
	andl	%ecx, %edx
	testb	%dl, %dl
	je	.L670
	subl	$12, %esp
	pushl	%eax
	call	__asan_report_store4
.L670:
	movl	-32(%ebp), %eax
	movl	$-1, 56(%eax)
	movl	$0, -40(%ebp)
	jmp	.L671
.L680:
	movl	-40(%ebp), %eax
	leal	0(,%eax,4), %edx
	movl	-32(%ebp), %eax
	addl	%edx, %eax
	addl	$12, %eax
	movl	%eax, %edx
	shrl	$3, %edx
	addl	$536870912, %edx
	movzbl	(%edx), %edx
	testb	%dl, %dl
	setne	%cl
	movl	%eax, %ebx
	andl	$7, %ebx
	addl	$3, %ebx
	cmpb	%dl, %bl
	setge	%dl
	andl	%ecx, %edx
	testb	%dl, %dl
	je	.L672
	subl	$12, %esp
	pushl	%eax
	call	__asan_report_load4
.L672:
	movl	-32(%ebp), %eax
	movl	-40(%ebp), %edx
	movl	12(%eax,%edx,4), %eax
	movl	%eax, -44(%ebp)
	movl	throttles, %ecx
	movl	-44(%ebp), %edx
	movl	%edx, %eax
	addl	%eax, %eax
	addl	%edx, %eax
	sall	$3, %eax
	leal	(%ecx,%eax), %edx
	leal	4(%edx), %eax
	movl	%eax, %ecx
	shrl	$3, %ecx
	addl	$536870912, %ecx
	movzbl	(%ecx), %ecx
	testb	%cl, %cl
	setne	%bl
	movl	%ebx, %edi
	movl	%eax, %esi
	andl	$7, %esi
	addl	$3, %esi
	movl	%esi, %ebx
	cmpb	%cl, %bl
	setge	%cl
	andl	%edi, %ecx
	testb	%cl, %cl
	je	.L673
	subl	$12, %esp
	pushl	%eax
	call	__asan_report_load4
.L673:
	movl	4(%edx), %eax
	movl	%eax, -60(%ebp)
	movl	throttles, %ecx
	movl	-44(%ebp), %edx
	movl	%edx, %eax
	addl	%eax, %eax
	addl	%edx, %eax
	sall	$3, %eax
	leal	(%ecx,%eax), %edx
	leal	20(%edx), %eax
	movl	%eax, %ecx
	shrl	$3, %ecx
	addl	$536870912, %ecx
	movzbl	(%ecx), %ecx
	testb	%cl, %cl
	setne	%bl
	movl	%ebx, %esi
	movl	%eax, %edi
	andl	$7, %edi
	addl	$3, %edi
	movl	%edi, %ebx
	cmpb	%cl, %bl
	setge	%cl
	andl	%esi, %ecx
	testb	%cl, %cl
	je	.L674
	subl	$12, %esp
	pushl	%eax
	call	__asan_report_load4
.L674:
	movl	20(%edx), %edi
	movl	-60(%ebp), %eax
	cltd
	idivl	%edi
	movl	%eax, -28(%ebp)
	movl	-32(%ebp), %eax
	addl	$56, %eax
	movl	%eax, %edx
	shrl	$3, %edx
	addl	$536870912, %edx
	movzbl	(%edx), %edx
	testb	%dl, %dl
	setne	%cl
	movl	%eax, %ebx
	andl	$7, %ebx
	addl	$3, %ebx
	cmpb	%dl, %bl
	setge	%dl
	andl	%ecx, %edx
	testb	%dl, %dl
	je	.L675
	subl	$12, %esp
	pushl	%eax
	call	__asan_report_load4
.L675:
	movl	-32(%ebp), %eax
	movl	56(%eax), %eax
	cmpl	$-1, %eax
	jne	.L676
	movl	-32(%ebp), %eax
	movl	-28(%ebp), %edx
	movl	%edx, 56(%eax)
	jmp	.L677
.L676:
	movl	-32(%ebp), %eax
	addl	$56, %eax
	movl	%eax, %edx
	shrl	$3, %edx
	addl	$536870912, %edx
	movzbl	(%edx), %edx
	testb	%dl, %dl
	setne	%cl
	movl	%eax, %ebx
	andl	$7, %ebx
	addl	$3, %ebx
	cmpb	%dl, %bl
	setge	%dl
	andl	%ecx, %edx
	testb	%dl, %dl
	je	.L678
	subl	$12, %esp
	pushl	%eax
	call	__asan_report_load4
.L678:
	movl	-32(%ebp), %eax
	movl	56(%eax), %edx
	movl	-28(%ebp), %eax
	cmpl	%eax, %edx
	cmovg	%eax, %edx
	movl	-32(%ebp), %eax
	movl	%edx, 56(%eax)
.L677:
	addl	$1, -40(%ebp)
.L671:
	movl	-32(%ebp), %eax
	addl	$52, %eax
	movl	%eax, %edx
	shrl	$3, %edx
	addl	$536870912, %edx
	movzbl	(%edx), %edx
	testb	%dl, %dl
	setne	%cl
	movl	%eax, %ebx
	andl	$7, %ebx
	addl	$3, %ebx
	cmpb	%dl, %bl
	setge	%dl
	andl	%ecx, %edx
	testb	%dl, %dl
	je	.L679
	subl	$12, %esp
	pushl	%eax
	call	__asan_report_load4
.L679:
	movl	-32(%ebp), %eax
	movl	52(%eax), %eax
	cmpl	-40(%ebp), %eax
	jg	.L680
.L669:
	addl	$1, -36(%ebp)
.L666:
	movl	max_connects, %eax
	cmpl	%eax, -36(%ebp)
	jl	.L681
	leal	-12(%ebp), %esp
	popl	%ebx
	.cfi_restore 3
	popl	%esi
	.cfi_restore 6
	popl	%edi
	.cfi_restore 7
	popl	%ebp
	.cfi_restore 5
	.cfi_def_cfa 4, 4
	ret
	.cfi_endproc
.LFE23:
	.size	update_throttles, .-update_throttles
	.type	finish_connection, @function
finish_connection:
.LASANPC24:
.LFB24:
	.cfi_startproc
	pushl	%ebp
	.cfi_def_cfa_offset 8
	.cfi_offset 5, -8
	movl	%esp, %ebp
	.cfi_def_cfa_register 5
	pushl	%ebx
	subl	$4, %esp
	.cfi_offset 3, -12
	movl	8(%ebp), %eax
	addl	$8, %eax
	movl	%eax, %edx
	shrl	$3, %edx
	addl	$536870912, %edx
	movzbl	(%edx), %edx
	testb	%dl, %dl
	setne	%cl
	movl	%eax, %ebx
	andl	$7, %ebx
	addl	$3, %ebx
	cmpb	%dl, %bl
	setge	%dl
	andl	%ecx, %edx
	testb	%dl, %dl
	je	.L683
	subl	$12, %esp
	pushl	%eax
	call	__asan_report_load4
.L683:
	movl	8(%ebp), %eax
	movl	8(%eax), %eax
	subl	$12, %esp
	pushl	%eax
	call	httpd_write_response
	addl	$16, %esp
	subl	$8, %esp
	pushl	12(%ebp)
	pushl	8(%ebp)
	call	clear_connection
	addl	$16, %esp
	movl	-4(%ebp), %ebx
	leave
	.cfi_restore 5
	.cfi_restore 3
	.cfi_def_cfa 4, 4
	ret
	.cfi_endproc
.LFE24:
	.size	finish_connection, .-finish_connection
	.section	.rodata
	.align 32
.LC135:
	.string	"replacing non-null linger_timer!"
	.zero	63
	.align 32
.LC136:
	.string	"tmr_create(linger_clear_connection) failed"
	.zero	53
	.text
	.type	clear_connection, @function
clear_connection:
.LASANPC25:
.LFB25:
	.cfi_startproc
	pushl	%ebp
	.cfi_def_cfa_offset 8
	.cfi_offset 5, -8
	movl	%esp, %ebp
	.cfi_def_cfa_register 5
	pushl	%edi
	pushl	%esi
	pushl	%ebx
	subl	$124, %esp
	.cfi_offset 7, -12
	.cfi_offset 6, -16
	.cfi_offset 3, -20
	leal	-120(%ebp), %eax
	movl	%eax, -124(%ebp)
	movl	%eax, -132(%ebp)
	cmpl	$0, __asan_option_detect_stack_use_after_return
	je	.L684
	subl	$8, %esp
	pushl	-124(%ebp)
	pushl	$96
	call	__asan_stack_malloc_1
	addl	$16, %esp
	movl	%eax, -124(%ebp)
.L684:
	movl	-124(%ebp), %edi
	movl	%edi, %eax
	addl	$96, %eax
	movl	%eax, -128(%ebp)
	movl	%edi, %eax
	movl	$1102416563, (%eax)
	movl	%edi, %eax
	movl	$.LC122, 4(%eax)
	movl	$.LASANPC25, 8(%eax)
	shrl	$3, %eax
	movl	%eax, %edi
	movl	$-235802127, 536870912(%edi)
	movl	$-185273340, 536870916(%edi)
	movl	$-202116109, 536870920(%edi)
	movl	8(%ebp), %eax
	addl	$72, %eax
	movl	%eax, %edx
	movl	%edx, %eax
	shrl	$3, %eax
	addl	$536870912, %eax
	movzbl	(%eax), %ecx
	testb	%cl, %cl
	setne	%bl
	movl	%edx, %eax
	andl	$7, %eax
	addl	$3, %eax
	cmpb	%cl, %al
	setge	%al
	andl	%ebx, %eax
	testb	%al, %al
	je	.L688
	subl	$12, %esp
	pushl	%edx
	call	__asan_report_load4
.L688:
	movl	8(%ebp), %eax
	movl	72(%eax), %eax
	testl	%eax, %eax
	je	.L689
	movl	8(%ebp), %eax
	movl	72(%eax), %eax
	subl	$12, %esp
	pushl	%eax
	call	tmr_cancel
	addl	$16, %esp
	movl	8(%ebp), %eax
	addl	$72, %eax
	movl	%eax, %edx
	movl	%edx, %eax
	shrl	$3, %eax
	addl	$536870912, %eax
	movzbl	(%eax), %ecx
	testb	%cl, %cl
	setne	%bl
	movl	%edx, %eax
	andl	$7, %eax
	addl	$3, %eax
	cmpb	%cl, %al
	setge	%al
	andl	%ebx, %eax
	testb	%al, %al
	je	.L690
	subl	$12, %esp
	pushl	%edx
	call	__asan_report_store4
.L690:
	movl	8(%ebp), %eax
	movl	$0, 72(%eax)
.L689:
	movl	8(%ebp), %eax
	movl	%eax, %edx
	movl	%edx, %eax
	shrl	$3, %eax
	addl	$536870912, %eax
	movzbl	(%eax), %ecx
	testb	%cl, %cl
	setne	%bl
	movl	%edx, %eax
	andl	$7, %eax
	addl	$3, %eax
	cmpb	%cl, %al
	setge	%al
	andl	%ebx, %eax
	testb	%al, %al
	je	.L691
	subl	$12, %esp
	pushl	%edx
	call	__asan_report_load4
.L691:
	movl	8(%ebp), %eax
	movl	(%eax), %eax
	cmpl	$4, %eax
	jne	.L692
	movl	8(%ebp), %eax
	addl	$76, %eax
	movl	%eax, %edx
	movl	%edx, %eax
	shrl	$3, %eax
	addl	$536870912, %eax
	movzbl	(%eax), %ecx
	testb	%cl, %cl
	setne	%bl
	movl	%edx, %eax
	andl	$7, %eax
	addl	$3, %eax
	cmpb	%cl, %al
	setge	%al
	andl	%ebx, %eax
	testb	%al, %al
	je	.L693
	subl	$12, %esp
	pushl	%edx
	call	__asan_report_load4
.L693:
	movl	8(%ebp), %eax
	movl	76(%eax), %eax
	subl	$12, %esp
	pushl	%eax
	call	tmr_cancel
	addl	$16, %esp
	movl	8(%ebp), %eax
	addl	$76, %eax
	movl	%eax, %edx
	movl	%edx, %eax
	shrl	$3, %eax
	addl	$536870912, %eax
	movzbl	(%eax), %ecx
	testb	%cl, %cl
	setne	%bl
	movl	%edx, %eax
	andl	$7, %eax
	addl	$3, %eax
	cmpb	%cl, %al
	setge	%al
	andl	%ebx, %eax
	testb	%al, %al
	je	.L694
	subl	$12, %esp
	pushl	%edx
	call	__asan_report_store4
.L694:
	movl	8(%ebp), %eax
	movl	$0, 76(%eax)
	movl	8(%ebp), %eax
	addl	$8, %eax
	movl	%eax, %edx
	movl	%edx, %eax
	shrl	$3, %eax
	addl	$536870912, %eax
	movzbl	(%eax), %ecx
	testb	%cl, %cl
	setne	%bl
	movl	%edx, %eax
	andl	$7, %eax
	addl	$3, %eax
	cmpb	%cl, %al
	setge	%al
	andl	%ebx, %eax
	testb	%al, %al
	je	.L695
	subl	$12, %esp
	pushl	%edx
	call	__asan_report_load4
.L695:
	movl	8(%ebp), %eax
	movl	8(%eax), %ebx
	leal	356(%ebx), %eax
	movl	%eax, %ecx
	movl	%ecx, %eax
	shrl	$3, %eax
	addl	$536870912, %eax
	movzbl	(%eax), %edx
	testb	%dl, %dl
	setne	%al
	movl	%eax, %esi
	movl	%ecx, %eax
	andl	$7, %eax
	addl	$3, %eax
	cmpb	%dl, %al
	setge	%al
	andl	%esi, %eax
	testb	%al, %al
	je	.L696
	subl	$12, %esp
	pushl	%ecx
	call	__asan_report_store4
.L696:
	movl	$0, 356(%ebx)
.L692:
	movl	8(%ebp), %eax
	addl	$8, %eax
	movl	%eax, %edx
	movl	%edx, %eax
	shrl	$3, %eax
	addl	$536870912, %eax
	movzbl	(%eax), %ecx
	testb	%cl, %cl
	setne	%bl
	movl	%edx, %eax
	andl	$7, %eax
	addl	$3, %eax
	cmpb	%cl, %al
	setge	%al
	andl	%ebx, %eax
	testb	%al, %al
	je	.L697
	subl	$12, %esp
	pushl	%edx
	call	__asan_report_load4
.L697:
	movl	8(%ebp), %eax
	movl	8(%eax), %ebx
	leal	356(%ebx), %eax
	movl	%eax, %ecx
	movl	%ecx, %eax
	shrl	$3, %eax
	addl	$536870912, %eax
	movzbl	(%eax), %edx
	testb	%dl, %dl
	setne	%al
	movl	%eax, %esi
	movl	%ecx, %eax
	andl	$7, %eax
	addl	$3, %eax
	cmpb	%dl, %al
	setge	%al
	andl	%esi, %eax
	testb	%al, %al
	je	.L698
	subl	$12, %esp
	pushl	%ecx
	call	__asan_report_load4
.L698:
	movl	356(%ebx), %eax
	testl	%eax, %eax
	je	.L699
	movl	8(%ebp), %eax
	movl	%eax, %edx
	movl	%edx, %eax
	shrl	$3, %eax
	addl	$536870912, %eax
	movzbl	(%eax), %ecx
	testb	%cl, %cl
	setne	%bl
	movl	%edx, %eax
	andl	$7, %eax
	addl	$3, %eax
	cmpb	%cl, %al
	setge	%al
	andl	%ebx, %eax
	testb	%al, %al
	je	.L700
	subl	$12, %esp
	pushl	%edx
	call	__asan_report_load4
.L700:
	movl	8(%ebp), %eax
	movl	(%eax), %eax
	cmpl	$3, %eax
	je	.L701
	movl	8(%ebp), %eax
	movl	8(%eax), %ebx
	leal	448(%ebx), %eax
	movl	%eax, %ecx
	movl	%ecx, %eax
	shrl	$3, %eax
	addl	$536870912, %eax
	movzbl	(%eax), %edx
	testb	%dl, %dl
	setne	%al
	movl	%eax, %esi
	movl	%ecx, %eax
	andl	$7, %eax
	addl	$3, %eax
	cmpb	%dl, %al
	setge	%al
	andl	%esi, %eax
	testb	%al, %al
	je	.L702
	subl	$12, %esp
	pushl	%ecx
	call	__asan_report_load4
.L702:
	movl	448(%ebx), %eax
	subl	$12, %esp
	pushl	%eax
	call	fdwatch_del_fd
	addl	$16, %esp
.L701:
	movl	8(%ebp), %eax
	movl	%eax, %edx
	movl	%edx, %eax
	shrl	$3, %eax
	addl	$536870912, %eax
	movzbl	(%eax), %ecx
	testb	%cl, %cl
	setne	%bl
	movl	%edx, %eax
	andl	$7, %eax
	addl	$3, %eax
	cmpb	%cl, %al
	setge	%al
	andl	%ebx, %eax
	testb	%al, %al
	je	.L703
	subl	$12, %esp
	pushl	%edx
	call	__asan_report_store4
.L703:
	movl	8(%ebp), %eax
	movl	$4, (%eax)
	movl	8(%ebp), %eax
	addl	$8, %eax
	movl	%eax, %edx
	movl	%edx, %eax
	shrl	$3, %eax
	addl	$536870912, %eax
	movzbl	(%eax), %ecx
	testb	%cl, %cl
	setne	%bl
	movl	%edx, %eax
	andl	$7, %eax
	addl	$3, %eax
	cmpb	%cl, %al
	setge	%al
	andl	%ebx, %eax
	testb	%al, %al
	je	.L704
	subl	$12, %esp
	pushl	%edx
	call	__asan_report_load4
.L704:
	movl	8(%ebp), %eax
	movl	8(%eax), %ebx
	leal	448(%ebx), %eax
	movl	%eax, %ecx
	movl	%ecx, %eax
	shrl	$3, %eax
	addl	$536870912, %eax
	movzbl	(%eax), %edx
	testb	%dl, %dl
	setne	%al
	movl	%eax, %esi
	movl	%ecx, %eax
	andl	$7, %eax
	addl	$3, %eax
	cmpb	%dl, %al
	setge	%al
	andl	%esi, %eax
	testb	%al, %al
	je	.L705
	subl	$12, %esp
	pushl	%ecx
	call	__asan_report_load4
.L705:
	movl	448(%ebx), %eax
	subl	$8, %esp
	pushl	$1
	pushl	%eax
	call	shutdown
	addl	$16, %esp
	movl	8(%ebp), %eax
	addl	$8, %eax
	movl	%eax, %edx
	movl	%edx, %eax
	shrl	$3, %eax
	addl	$536870912, %eax
	movzbl	(%eax), %ecx
	testb	%cl, %cl
	setne	%bl
	movl	%edx, %eax
	andl	$7, %eax
	addl	$3, %eax
	cmpb	%cl, %al
	setge	%al
	andl	%ebx, %eax
	testb	%al, %al
	je	.L706
	subl	$12, %esp
	pushl	%edx
	call	__asan_report_load4
.L706:
	movl	8(%ebp), %eax
	movl	8(%eax), %ebx
	leal	448(%ebx), %eax
	movl	%eax, %ecx
	movl	%ecx, %eax
	shrl	$3, %eax
	addl	$536870912, %eax
	movzbl	(%eax), %edx
	testb	%dl, %dl
	setne	%al
	movl	%eax, %esi
	movl	%ecx, %eax
	andl	$7, %eax
	addl	$3, %eax
	cmpb	%dl, %al
	setge	%al
	andl	%esi, %eax
	testb	%al, %al
	je	.L707
	subl	$12, %esp
	pushl	%ecx
	call	__asan_report_load4
.L707:
	movl	448(%ebx), %eax
	subl	$4, %esp
	pushl	$0
	pushl	8(%ebp)
	pushl	%eax
	call	fdwatch_add_fd
	addl	$16, %esp
	movl	8(%ebp), %eax
	movl	-128(%ebp), %esi
	movl	%eax, -64(%esi)
	movl	8(%ebp), %eax
	addl	$76, %eax
	movl	%eax, %edx
	movl	%edx, %eax
	shrl	$3, %eax
	addl	$536870912, %eax
	movzbl	(%eax), %ecx
	testb	%cl, %cl
	setne	%bl
	movl	%edx, %eax
	andl	$7, %eax
	addl	$3, %eax
	cmpb	%cl, %al
	setge	%al
	andl	%ebx, %eax
	testb	%al, %al
	je	.L708
	subl	$12, %esp
	pushl	%edx
	call	__asan_report_load4
.L708:
	movl	8(%ebp), %eax
	movl	76(%eax), %eax
	testl	%eax, %eax
	je	.L709
	subl	$8, %esp
	pushl	$.LC135
	pushl	$3
	call	syslog
	addl	$16, %esp
.L709:
	subl	$12, %esp
	pushl	$0
	pushl	$500
	movl	-128(%ebp), %eax
	pushl	-64(%eax)
	pushl	$linger_clear_connection
	pushl	12(%ebp)
	call	tmr_create
	addl	$32, %esp
	movl	%eax, %ebx
	movl	8(%ebp), %eax
	addl	$76, %eax
	movl	%eax, %edx
	movl	%edx, %eax
	shrl	$3, %eax
	addl	$536870912, %eax
	movzbl	(%eax), %ecx
	testb	%cl, %cl
	setne	%al
	movl	%eax, %esi
	movl	%edx, %eax
	andl	$7, %eax
	addl	$3, %eax
	cmpb	%cl, %al
	setge	%al
	andl	%esi, %eax
	testb	%al, %al
	je	.L710
	subl	$12, %esp
	pushl	%edx
	call	__asan_report_store4
.L710:
	movl	8(%ebp), %eax
	movl	%ebx, 76(%eax)
	movl	8(%ebp), %eax
	movl	76(%eax), %eax
	testl	%eax, %eax
	jne	.L687
	subl	$8, %esp
	pushl	$.LC136
	pushl	$2
	call	syslog
	addl	$16, %esp
	call	__asan_handle_no_return
	subl	$12, %esp
	pushl	$1
	call	exit
.L699:
	subl	$8, %esp
	pushl	12(%ebp)
	pushl	8(%ebp)
	call	really_clear_connection
	addl	$16, %esp
.L687:
	movl	-124(%ebp), %esi
	cmpl	%esi, -132(%ebp)
	je	.L685
	movl	-124(%ebp), %eax
	movl	$1172321806, (%eax)
	movl	$-168430091, 536870912(%edi)
	movl	$-168430091, 536870916(%edi)
	movl	$-168430091, 536870920(%edi)
	jmp	.L686
.L685:
	movl	$0, 536870912(%edi)
	movl	$0, 536870916(%edi)
	movl	$0, 536870920(%edi)
.L686:
	leal	-12(%ebp), %esp
	popl	%ebx
	.cfi_restore 3
	popl	%esi
	.cfi_restore 6
	popl	%edi
	.cfi_restore 7
	popl	%ebp
	.cfi_restore 5
	.cfi_def_cfa 4, 4
	ret
	.cfi_endproc
.LFE25:
	.size	clear_connection, .-clear_connection
	.type	really_clear_connection, @function
really_clear_connection:
.LASANPC26:
.LFB26:
	.cfi_startproc
	pushl	%ebp
	.cfi_def_cfa_offset 8
	.cfi_offset 5, -8
	movl	%esp, %ebp
	.cfi_def_cfa_register 5
	pushl	%edi
	pushl	%esi
	pushl	%ebx
	subl	$12, %esp
	.cfi_offset 7, -12
	.cfi_offset 6, -16
	.cfi_offset 3, -20
	movl	8(%ebp), %eax
	addl	$8, %eax
	movl	%eax, %edx
	shrl	$3, %edx
	addl	$536870912, %edx
	movzbl	(%edx), %edx
	testb	%dl, %dl
	setne	%cl
	movl	%eax, %ebx
	andl	$7, %ebx
	addl	$3, %ebx
	cmpb	%dl, %bl
	setge	%dl
	andl	%ecx, %edx
	testb	%dl, %dl
	je	.L713
	subl	$12, %esp
	pushl	%eax
	call	__asan_report_load4
.L713:
	movl	8(%ebp), %eax
	movl	8(%eax), %edx
	leal	168(%edx), %eax
	movl	%eax, %ecx
	shrl	$3, %ecx
	addl	$536870912, %ecx
	movzbl	(%ecx), %ecx
	testb	%cl, %cl
	setne	%bl
	movl	%ebx, %edi
	movl	%eax, %esi
	andl	$7, %esi
	addl	$3, %esi
	movl	%esi, %ebx
	cmpb	%cl, %bl
	setge	%cl
	andl	%edi, %ecx
	testb	%cl, %cl
	je	.L714
	subl	$12, %esp
	pushl	%eax
	call	__asan_report_load4
.L714:
	movl	168(%edx), %edx
	movl	stats_bytes, %eax
	addl	%edx, %eax
	movl	%eax, stats_bytes
	movl	8(%ebp), %eax
	movl	%eax, %edx
	shrl	$3, %edx
	addl	$536870912, %edx
	movzbl	(%edx), %edx
	testb	%dl, %dl
	setne	%cl
	movl	%eax, %ebx
	andl	$7, %ebx
	addl	$3, %ebx
	cmpb	%dl, %bl
	setge	%dl
	andl	%ecx, %edx
	testb	%dl, %dl
	je	.L715
	subl	$12, %esp
	pushl	%eax
	call	__asan_report_load4
.L715:
	movl	8(%ebp), %eax
	movl	(%eax), %eax
	cmpl	$3, %eax
	je	.L716
	movl	8(%ebp), %eax
	movl	8(%eax), %edx
	leal	448(%edx), %eax
	movl	%eax, %ecx
	shrl	$3, %ecx
	addl	$536870912, %ecx
	movzbl	(%ecx), %ecx
	testb	%cl, %cl
	setne	%bl
	movl	%ebx, %edi
	movl	%eax, %esi
	andl	$7, %esi
	addl	$3, %esi
	movl	%esi, %ebx
	cmpb	%cl, %bl
	setge	%cl
	andl	%edi, %ecx
	testb	%cl, %cl
	je	.L717
	subl	$12, %esp
	pushl	%eax
	call	__asan_report_load4
.L717:
	movl	448(%edx), %eax
	subl	$12, %esp
	pushl	%eax
	call	fdwatch_del_fd
	addl	$16, %esp
.L716:
	movl	8(%ebp), %eax
	addl	$8, %eax
	movl	%eax, %edx
	shrl	$3, %edx
	addl	$536870912, %edx
	movzbl	(%edx), %edx
	testb	%dl, %dl
	setne	%cl
	movl	%eax, %ebx
	andl	$7, %ebx
	addl	$3, %ebx
	cmpb	%dl, %bl
	setge	%dl
	andl	%ecx, %edx
	testb	%dl, %dl
	je	.L718
	subl	$12, %esp
	pushl	%eax
	call	__asan_report_load4
.L718:
	movl	8(%ebp), %eax
	movl	8(%eax), %eax
	subl	$8, %esp
	pushl	12(%ebp)
	pushl	%eax
	call	httpd_close_conn
	addl	$16, %esp
	subl	$8, %esp
	pushl	12(%ebp)
	pushl	8(%ebp)
	call	clear_throttles
	addl	$16, %esp
	movl	8(%ebp), %eax
	addl	$76, %eax
	movl	%eax, %edx
	shrl	$3, %edx
	addl	$536870912, %edx
	movzbl	(%edx), %edx
	testb	%dl, %dl
	setne	%cl
	movl	%eax, %ebx
	andl	$7, %ebx
	addl	$3, %ebx
	cmpb	%dl, %bl
	setge	%dl
	andl	%ecx, %edx
	testb	%dl, %dl
	je	.L719
	subl	$12, %esp
	pushl	%eax
	call	__asan_report_load4
.L719:
	movl	8(%ebp), %eax
	movl	76(%eax), %eax
	testl	%eax, %eax
	je	.L720
	movl	8(%ebp), %eax
	movl	76(%eax), %eax
	subl	$12, %esp
	pushl	%eax
	call	tmr_cancel
	addl	$16, %esp
	movl	8(%ebp), %eax
	addl	$76, %eax
	movl	%eax, %edx
	shrl	$3, %edx
	addl	$536870912, %edx
	movzbl	(%edx), %edx
	testb	%dl, %dl
	setne	%cl
	movl	%eax, %ebx
	andl	$7, %ebx
	addl	$3, %ebx
	cmpb	%dl, %bl
	setge	%dl
	andl	%ecx, %edx
	testb	%dl, %dl
	je	.L721
	subl	$12, %esp
	pushl	%eax
	call	__asan_report_store4
.L721:
	movl	8(%ebp), %eax
	movl	$0, 76(%eax)
.L720:
	movl	8(%ebp), %eax
	movl	%eax, %edx
	shrl	$3, %edx
	addl	$536870912, %edx
	movzbl	(%edx), %edx
	testb	%dl, %dl
	setne	%cl
	movl	%eax, %ebx
	andl	$7, %ebx
	addl	$3, %ebx
	cmpb	%dl, %bl
	setge	%dl
	andl	%ecx, %edx
	testb	%dl, %dl
	je	.L722
	subl	$12, %esp
	pushl	%eax
	call	__asan_report_store4
.L722:
	movl	8(%ebp), %eax
	movl	$0, (%eax)
	movl	first_free_connect, %edi
	movl	8(%ebp), %eax
	addl	$4, %eax
	movl	%eax, %edx
	shrl	$3, %edx
	addl	$536870912, %edx
	movzbl	(%edx), %edx
	testb	%dl, %dl
	setne	%bl
	movl	%eax, %esi
	andl	$7, %esi
	addl	$3, %esi
	movl	%esi, %ecx
	cmpb	%dl, %cl
	setge	%dl
	andl	%ebx, %edx
	testb	%dl, %dl
	je	.L723
	subl	$12, %esp
	pushl	%eax
	call	__asan_report_store4
.L723:
	movl	8(%ebp), %eax
	movl	%edi, 4(%eax)
	movl	8(%ebp), %eax
	movl	connects, %edx
	subl	%edx, %eax
	sarl	$5, %eax
	imull	$-1431655765, %eax, %eax
	movl	%eax, first_free_connect
	movl	num_connects, %eax
	subl	$1, %eax
	movl	%eax, num_connects
	leal	-12(%ebp), %esp
	popl	%ebx
	.cfi_restore 3
	popl	%esi
	.cfi_restore 6
	popl	%edi
	.cfi_restore 7
	popl	%ebp
	.cfi_restore 5
	.cfi_def_cfa 4, 4
	ret
	.cfi_endproc
.LFE26:
	.size	really_clear_connection, .-really_clear_connection
	.section	.rodata
	.align 32
.LC137:
	.string	"%.80s connection timed out reading"
	.zero	61
	.align 32
.LC138:
	.string	"%.80s connection timed out sending"
	.zero	61
	.text
	.type	idle, @function
idle:
.LASANPC27:
.LFB27:
	.cfi_startproc
	pushl	%ebp
	.cfi_def_cfa_offset 8
	.cfi_offset 5, -8
	movl	%esp, %ebp
	.cfi_def_cfa_register 5
	pushl	%edi
	pushl	%esi
	pushl	%ebx
	subl	$44, %esp
	.cfi_offset 7, -12
	.cfi_offset 6, -16
	.cfi_offset 3, -20
	movl	$0, -32(%ebp)
	jmp	.L725
.L741:
	movl	connects, %ecx
	movl	-32(%ebp), %edx
	movl	%edx, %eax
	addl	%eax, %eax
	addl	%edx, %eax
	sall	$5, %eax
	addl	%ecx, %eax
	movl	%eax, -28(%ebp)
	movl	-28(%ebp), %eax
	movl	%eax, %edx
	shrl	$3, %edx
	addl	$536870912, %edx
	movzbl	(%edx), %edx
	testb	%dl, %dl
	setne	%cl
	movl	%eax, %ebx
	andl	$7, %ebx
	addl	$3, %ebx
	cmpb	%dl, %bl
	setge	%dl
	andl	%ecx, %edx
	testb	%dl, %dl
	je	.L726
	subl	$12, %esp
	pushl	%eax
	call	__asan_report_load4
.L726:
	movl	-28(%ebp), %eax
	movl	(%eax), %eax
	cmpl	$1, %eax
	je	.L728
	cmpl	$1, %eax
	jl	.L727
	cmpl	$3, %eax
	jg	.L727
	jmp	.L742
.L728:
	movl	12(%ebp), %eax
	movl	%eax, %edx
	shrl	$3, %edx
	addl	$536870912, %edx
	movzbl	(%edx), %edx
	testb	%dl, %dl
	setne	%cl
	movl	%eax, %ebx
	andl	$7, %ebx
	addl	$3, %ebx
	cmpb	%dl, %bl
	setge	%dl
	andl	%ecx, %edx
	testb	%dl, %dl
	je	.L730
	subl	$12, %esp
	pushl	%eax
	call	__asan_report_load4
.L730:
	movl	12(%ebp), %eax
	movl	(%eax), %edi
	movl	-28(%ebp), %eax
	addl	$68, %eax
	movl	%eax, %edx
	shrl	$3, %edx
	addl	$536870912, %edx
	movzbl	(%edx), %edx
	testb	%dl, %dl
	setne	%bl
	movl	%eax, %esi
	andl	$7, %esi
	addl	$3, %esi
	movl	%esi, %ecx
	cmpb	%dl, %cl
	setge	%dl
	andl	%ebx, %edx
	testb	%dl, %dl
	je	.L731
	subl	$12, %esp
	pushl	%eax
	call	__asan_report_load4
.L731:
	movl	-28(%ebp), %eax
	movl	68(%eax), %eax
	movl	%edi, %ecx
	subl	%eax, %ecx
	movl	%ecx, %eax
	cmpl	$59, %eax
	jle	.L732
	movl	-28(%ebp), %eax
	addl	$8, %eax
	movl	%eax, %edx
	shrl	$3, %edx
	addl	$536870912, %edx
	movzbl	(%edx), %edx
	testb	%dl, %dl
	setne	%cl
	movl	%eax, %ebx
	andl	$7, %ebx
	addl	$3, %ebx
	cmpb	%dl, %bl
	setge	%dl
	andl	%ecx, %edx
	testb	%dl, %dl
	je	.L733
	subl	$12, %esp
	pushl	%eax
	call	__asan_report_load4
.L733:
	movl	-28(%ebp), %eax
	movl	8(%eax), %eax
	addl	$8, %eax
	subl	$12, %esp
	pushl	%eax
	call	httpd_ntoa
	addl	$16, %esp
	subl	$4, %esp
	pushl	%eax
	pushl	$.LC137
	pushl	$6
	call	syslog
	addl	$16, %esp
	movl	$httpd_err408form, %eax
	movl	%eax, %edx
	shrl	$3, %edx
	addl	$536870912, %edx
	movzbl	(%edx), %edx
	testb	%dl, %dl
	setne	%cl
	movl	%eax, %ebx
	andl	$7, %ebx
	addl	$3, %ebx
	cmpb	%dl, %bl
	setge	%dl
	andl	%ecx, %edx
	testb	%dl, %dl
	je	.L734
	subl	$12, %esp
	pushl	%eax
	call	__asan_report_load4
.L734:
	movl	httpd_err408form, %eax
	movl	%eax, -44(%ebp)
	movl	$httpd_err408title, %eax
	movl	%eax, %edx
	shrl	$3, %edx
	addl	$536870912, %edx
	movzbl	(%edx), %edx
	testb	%dl, %dl
	setne	%cl
	movl	%eax, %esi
	andl	$7, %esi
	addl	$3, %esi
	movl	%esi, %ebx
	cmpb	%dl, %bl
	setge	%dl
	andl	%ecx, %edx
	testb	%dl, %dl
	je	.L735
	subl	$12, %esp
	pushl	%eax
	call	__asan_report_load4
.L735:
	movl	httpd_err408title, %ecx
	movl	-28(%ebp), %eax
	addl	$8, %eax
	movl	%eax, %edx
	shrl	$3, %edx
	addl	$536870912, %edx
	movzbl	(%edx), %edx
	testb	%dl, %dl
	setne	%bl
	movl	%ebx, %esi
	movl	%eax, %edi
	andl	$7, %edi
	addl	$3, %edi
	movl	%edi, %ebx
	cmpb	%dl, %bl
	setge	%dl
	andl	%esi, %edx
	testb	%dl, %dl
	je	.L736
	subl	$12, %esp
	pushl	%eax
	call	__asan_report_load4
.L736:
	movl	-28(%ebp), %eax
	movl	8(%eax), %eax
	subl	$8, %esp
	pushl	$.LC48
	pushl	-44(%ebp)
	pushl	$.LC48
	pushl	%ecx
	pushl	$408
	pushl	%eax
	call	httpd_send_err
	addl	$32, %esp
	subl	$8, %esp
	pushl	12(%ebp)
	pushl	-28(%ebp)
	call	finish_connection
	addl	$16, %esp
	jmp	.L727
.L732:
	jmp	.L727
.L742:
	movl	12(%ebp), %eax
	movl	%eax, %edx
	shrl	$3, %edx
	addl	$536870912, %edx
	movzbl	(%edx), %edx
	testb	%dl, %dl
	setne	%cl
	movl	%eax, %ebx
	andl	$7, %ebx
	addl	$3, %ebx
	cmpb	%dl, %bl
	setge	%dl
	andl	%ecx, %edx
	testb	%dl, %dl
	je	.L737
	subl	$12, %esp
	pushl	%eax
	call	__asan_report_load4
.L737:
	movl	12(%ebp), %eax
	movl	(%eax), %edi
	movl	-28(%ebp), %eax
	addl	$68, %eax
	movl	%eax, %edx
	shrl	$3, %edx
	addl	$536870912, %edx
	movzbl	(%edx), %edx
	testb	%dl, %dl
	setne	%bl
	movl	%eax, %esi
	andl	$7, %esi
	addl	$3, %esi
	movl	%esi, %ecx
	cmpb	%dl, %cl
	setge	%dl
	andl	%ebx, %edx
	testb	%dl, %dl
	je	.L738
	subl	$12, %esp
	pushl	%eax
	call	__asan_report_load4
.L738:
	movl	-28(%ebp), %eax
	movl	68(%eax), %eax
	movl	%edi, %ecx
	subl	%eax, %ecx
	movl	%ecx, %eax
	cmpl	$299, %eax
	jle	.L739
	movl	-28(%ebp), %eax
	addl	$8, %eax
	movl	%eax, %edx
	shrl	$3, %edx
	addl	$536870912, %edx
	movzbl	(%edx), %edx
	testb	%dl, %dl
	setne	%cl
	movl	%eax, %ebx
	andl	$7, %ebx
	addl	$3, %ebx
	cmpb	%dl, %bl
	setge	%dl
	andl	%ecx, %edx
	testb	%dl, %dl
	je	.L740
	subl	$12, %esp
	pushl	%eax
	call	__asan_report_load4
.L740:
	movl	-28(%ebp), %eax
	movl	8(%eax), %eax
	addl	$8, %eax
	subl	$12, %esp
	pushl	%eax
	call	httpd_ntoa
	addl	$16, %esp
	subl	$4, %esp
	pushl	%eax
	pushl	$.LC138
	pushl	$6
	call	syslog
	addl	$16, %esp
	subl	$8, %esp
	pushl	12(%ebp)
	pushl	-28(%ebp)
	call	clear_connection
	addl	$16, %esp
	jmp	.L743
.L739:
.L743:
	nop
.L727:
	addl	$1, -32(%ebp)
.L725:
	movl	max_connects, %eax
	cmpl	%eax, -32(%ebp)
	jl	.L741
	leal	-12(%ebp), %esp
	popl	%ebx
	.cfi_restore 3
	popl	%esi
	.cfi_restore 6
	popl	%edi
	.cfi_restore 7
	popl	%ebp
	.cfi_restore 5
	.cfi_def_cfa 4, 4
	ret
	.cfi_endproc
.LFE27:
	.size	idle, .-idle
	.type	wakeup_connection, @function
wakeup_connection:
.LASANPC28:
.LFB28:
	.cfi_startproc
	pushl	%ebp
	.cfi_def_cfa_offset 8
	.cfi_offset 5, -8
	movl	%esp, %ebp
	.cfi_def_cfa_register 5
	pushl	%edi
	pushl	%esi
	pushl	%ebx
	subl	$28, %esp
	.cfi_offset 7, -12
	.cfi_offset 6, -16
	.cfi_offset 3, -20
	leal	8(%ebp), %eax
	movl	%eax, %edx
	shrl	$3, %edx
	addl	$536870912, %edx
	movzbl	(%edx), %edx
	testb	%dl, %dl
	setne	%cl
	movl	%eax, %ebx
	andl	$7, %ebx
	addl	$3, %ebx
	cmpb	%dl, %bl
	setge	%dl
	andl	%ecx, %edx
	testb	%dl, %dl
	je	.L745
	subl	$12, %esp
	pushl	%eax
	call	__asan_report_load4
.L745:
	movl	8(%ebp), %eax
	movl	%eax, -28(%ebp)
	movl	-28(%ebp), %eax
	addl	$72, %eax
	movl	%eax, %edx
	shrl	$3, %edx
	addl	$536870912, %edx
	movzbl	(%edx), %edx
	testb	%dl, %dl
	setne	%cl
	movl	%eax, %ebx
	andl	$7, %ebx
	addl	$3, %ebx
	cmpb	%dl, %bl
	setge	%dl
	andl	%ecx, %edx
	testb	%dl, %dl
	je	.L746
	subl	$12, %esp
	pushl	%eax
	call	__asan_report_store4
